TN:
SF:/home/randred/Desktop/lab3/libs/hash_table.h
FN:110,122,_ZN9HashTable12loadFromFileERKNSt7__cxx1112basic_stringIcSt11char_traitsIcESaIcEEE
FN:125,140,_ZNK9HashTable16saveToBinaryFileERKNSt7__cxx1112basic_stringIcSt11char_traitsIcESaIcEEE
FN:14,14,_ZN9HashTable12KeyValuePairC2ERKNSt7__cxx1112basic_stringIcSt11char_traitsIcESaIcEEES8_
FN:143,159,_ZN9HashTable18loadFromBinaryFileERKNSt7__cxx1112basic_stringIcSt11char_traitsIcESaIcEEE
FN:161,163,_ZNK9HashTable11getCapacityEv
FN:20,26,_ZNK9HashTable12hashFunctionERKNSt7__cxx1112basic_stringIcSt11char_traitsIcESaIcEEE
FN:29,34,_ZN9HashTableC2Em
FN:36,46,_ZN9HashTableD2Ev
FN:48,61,_ZN9HashTable4pushERKNSt7__cxx1112basic_stringIcSt11char_traitsIcESaIcEEES7_
FN:63,74,_ZNK9HashTable3getERKNSt7__cxx1112basic_stringIcSt11char_traitsIcESaIcEEERS5_
FN:76,94,_ZN9HashTable3delERKNSt7__cxx1112basic_stringIcSt11char_traitsIcESaIcEEE
FN:97,107,_ZNK9HashTable10saveToFileERKNSt7__cxx1112basic_stringIcSt11char_traitsIcESaIcEEE
FNDA:1,_ZN9HashTable12loadFromFileERKNSt7__cxx1112basic_stringIcSt11char_traitsIcESaIcEEE
FNDA:2,_ZNK9HashTable16saveToBinaryFileERKNSt7__cxx1112basic_stringIcSt11char_traitsIcESaIcEEE
FNDA:1011,_ZN9HashTable12KeyValuePairC2ERKNSt7__cxx1112basic_stringIcSt11char_traitsIcESaIcEEES8_
FNDA:1,_ZN9HashTable18loadFromBinaryFileERKNSt7__cxx1112basic_stringIcSt11char_traitsIcESaIcEEE
FNDA:1,_ZNK9HashTable11getCapacityEv
FNDA:4021,_ZNK9HashTable12hashFunctionERKNSt7__cxx1112basic_stringIcSt11char_traitsIcESaIcEEE
FNDA:13,_ZN9HashTableC2Em
FNDA:13,_ZN9HashTableD2Ev
FNDA:1012,_ZN9HashTable4pushERKNSt7__cxx1112basic_stringIcSt11char_traitsIcESaIcEEES7_
FNDA:2007,_ZNK9HashTable3getERKNSt7__cxx1112basic_stringIcSt11char_traitsIcESaIcEEERS5_
FNDA:1002,_ZN9HashTable3delERKNSt7__cxx1112basic_stringIcSt11char_traitsIcESaIcEEE
FNDA:1,_ZNK9HashTable10saveToFileERKNSt7__cxx1112basic_stringIcSt11char_traitsIcESaIcEEE
FNF:12
FNH:12
DA:14,1011
DA:20,4021
DA:21,4021
DA:22,27665
DA:23,23644
DA:25,4021
DA:29,13
DA:30,13
DA:31,233
DA:32,220
DA:34,13
DA:36,13
DA:37,233
DA:38,220
DA:39,230
DA:40,10
DA:41,10
DA:42,10
DA:45,13
DA:46,13
DA:48,1012
DA:49,1012
DA:50,1012
DA:51,5623
DA:52,4612
DA:53,1
DA:54,1
DA:56,4611
DA:58,1011
DA:59,1011
DA:60,1011
DA:63,2007
DA:64,2007
DA:65,2007
DA:66,6618
DA:67,5616
DA:68,1005
DA:69,1005
DA:71,4611
DA:73,1002
DA:76,1002
DA:77,1002
DA:78,1002
DA:79,1002
DA:80,5613
DA:81,5612
DA:82,1001
DA:83,101
DA:85,900
DA:87,1001
DA:88,1001
DA:90,4611
DA:91,4611
DA:93,1
DA:97,1
DA:98,1
DA:99,11
DA:100,10
DA:101,12
DA:102,2
DA:103,2
DA:106,1
DA:107,1
DA:110,1
DA:111,1
DA:112,1
DA:113,4
DA:114,2
DA:115,2
DA:116,2
DA:117,2
DA:118,2
DA:119,2
DA:121,1
DA:122,1
DA:125,2
DA:126,2
DA:127,22
DA:128,20
DA:129,22
DA:130,2
DA:131,2
DA:132,2
DA:133,2
DA:134,2
DA:135,2
DA:136,2
DA:139,2
DA:140,2
DA:143,1
DA:144,1
DA:145,2
DA:147,2
DA:149,1
DA:150,1
DA:152,1
DA:153,1
DA:154,1
DA:156,1
DA:157,1
DA:158,1
DA:159,1
DA:161,1
DA:162,1
LF:104
LH:104
end_of_record
TN:
SF:/home/randred/Desktop/lab3/libs/listD.h
FN:114,121,_ZN5ListD9printListEv
FN:123,134,_ZN5ListD10saveToFileERKNSt7__cxx1112basic_stringIcSt11char_traitsIcESaIcEEE
FN:136,150,_ZN5ListD12loadFromFileERKNSt7__cxx1112basic_stringIcSt11char_traitsIcESaIcEEE
FN:14,14,_ZN5ListD4NodeC2ERKNSt7__cxx1112basic_stringIcSt11char_traitsIcESaIcEEE
FN:152,162,_ZN5ListD16saveToBinaryFileERKNSt7__cxx1112basic_stringIcSt11char_traitsIcESaIcEEE
FN:164,176,_ZN5ListD18loadFromBinaryFileERKNSt7__cxx1112basic_stringIcSt11char_traitsIcESaIcEEE
FN:178,183,_ZNK5ListD11getHeadDataB5cxx11Ev
FN:186,188,_ZNK5ListD7getHeadEv
FN:190,192,_ZNK5ListD7getTailEv
FN:20,20,_ZN5ListDC2Ev
FN:22,28,_ZN5ListDD2Ev
FN:30,40,_ZN5ListD5pushhERKNSt7__cxx1112basic_stringIcSt11char_traitsIcESaIcEEE
FN:42,51,_ZN5ListD5pushtERKNSt7__cxx1112basic_stringIcSt11char_traitsIcESaIcEEE
FN:53,66,_ZN5ListD4delhEv
FN:68,82,_ZN5ListD4deltEv
FN:84,112,_ZN5ListD4delvERKNSt7__cxx1112basic_stringIcSt11char_traitsIcESaIcEEE
FNDA:3,_ZN5ListD9printListEv
FNDA:1,_ZN5ListD10saveToFileERKNSt7__cxx1112basic_stringIcSt11char_traitsIcESaIcEEE
FNDA:1,_ZN5ListD12loadFromFileERKNSt7__cxx1112basic_stringIcSt11char_traitsIcESaIcEEE
FNDA:25,_ZN5ListD4NodeC2ERKNSt7__cxx1112basic_stringIcSt11char_traitsIcESaIcEEE
FNDA:2,_ZN5ListD16saveToBinaryFileERKNSt7__cxx1112basic_stringIcSt11char_traitsIcESaIcEEE
FNDA:1,_ZN5ListD18loadFromBinaryFileERKNSt7__cxx1112basic_stringIcSt11char_traitsIcESaIcEEE
FNDA:1,_ZNK5ListD11getHeadDataB5cxx11Ev
FNDA:16,_ZNK5ListD7getHeadEv
FNDA:11,_ZNK5ListD7getTailEv
FNDA:12,_ZN5ListDC2Ev
FNDA:12,_ZN5ListDD2Ev
FNDA:14,_ZN5ListD5pushhERKNSt7__cxx1112basic_stringIcSt11char_traitsIcESaIcEEE
FNDA:11,_ZN5ListD5pushtERKNSt7__cxx1112basic_stringIcSt11char_traitsIcESaIcEEE
FNDA:2,_ZN5ListD4delhEv
FNDA:2,_ZN5ListD4deltEv
FNDA:2,_ZN5ListD4delvERKNSt7__cxx1112basic_stringIcSt11char_traitsIcESaIcEEE
FNF:16
FNH:16
DA:14,25
DA:20,12
DA:22,12
DA:23,44
DA:24,20
DA:25,20
DA:26,20
DA:28,12
DA:30,14
DA:31,14
DA:32,14
DA:33,14
DA:34,8
DA:36,14
DA:37,14
DA:38,6
DA:40,14
DA:42,11
DA:43,11
DA:44,11
DA:45,7
DA:47,4
DA:48,4
DA:49,4
DA:51,11
DA:53,2
DA:54,2
DA:55,0
DA:56,0
DA:58,2
DA:59,2
DA:60,2
DA:61,1
DA:63,1
DA:65,2
DA:68,2
DA:69,2
DA:70,0
DA:71,0
DA:73,2
DA:74,1
DA:75,1
DA:76,1
DA:78,1
DA:79,1
DA:80,1
DA:81,1
DA:84,2
DA:85,2
DA:86,0
DA:87,0
DA:89,2
DA:90,0
DA:91,0
DA:93,2
DA:94,5
DA:95,3
DA:97,2
DA:98,1
DA:99,1
DA:101,1
DA:102,1
DA:104,0
DA:106,1
DA:107,1
DA:109,0
DA:111,1
DA:114,3
DA:115,3
DA:116,10
DA:117,7
DA:118,7
DA:120,3
DA:121,3
DA:123,1
DA:124,1
DA:125,1
DA:126,4
DA:127,3
DA:128,3
DA:129,2
DA:131,3
DA:133,1
DA:134,1
DA:136,1
DA:137,1
DA:139,1
DA:140,1
DA:141,1
DA:142,1
DA:144,4
DA:145,3
DA:147,1
DA:149,1
DA:150,1
DA:152,2
DA:153,2
DA:154,2
DA:155,4
DA:156,2
DA:157,2
DA:158,2
DA:159,2
DA:161,2
DA:162,2
DA:164,1
DA:165,1
DA:166,2
DA:168,2
DA:170,1
DA:171,1
DA:173,1
DA:174,1
DA:175,1
DA:176,1
DA:178,1
DA:179,1
DA:180,1
DA:182,0
DA:186,16
DA:187,16
DA:190,11
DA:191,11
LF:123
LH:112
end_of_record
TN:
SF:/home/randred/Desktop/lab3/libs/listS.h
FN:105,116,_ZN5ListS10saveToFileERKNSt7__cxx1112basic_stringIcSt11char_traitsIcESaIcEEE
FN:119,129,_ZN5ListS16saveToBinaryFileERKNSt7__cxx1112basic_stringIcSt11char_traitsIcESaIcEEE
FN:13,13,_ZN5ListS4NodeC2ERKNSt7__cxx1112basic_stringIcSt11char_traitsIcESaIcEEE
FN:132,144,_ZN5ListS18loadFromBinaryFileERKNSt7__cxx1112basic_stringIcSt11char_traitsIcESaIcEEE
FN:147,149,_ZNK5ListS7getHeadEv
FN:151,153,_ZNK5ListS7getTailEv
FN:20,20,_ZN5ListSC2Ev
FN:22,28,_ZN5ListSD2Ev
FN:30,37,_ZN5ListS5pushhERKNSt7__cxx1112basic_stringIcSt11char_traitsIcESaIcEEE
FN:39,47,_ZN5ListS5pushtERKNSt7__cxx1112basic_stringIcSt11char_traitsIcESaIcEEE
FN:49,60,_ZN5ListS4delhB5cxx11Ev
FN:62,79,_ZN5ListS4deltB5cxx11Ev
FN:81,103,_ZN5ListS4delvERKNSt7__cxx1112basic_stringIcSt11char_traitsIcESaIcEEE
FNDA:1,_ZN5ListS10saveToFileERKNSt7__cxx1112basic_stringIcSt11char_traitsIcESaIcEEE
FNDA:1,_ZN5ListS16saveToBinaryFileERKNSt7__cxx1112basic_stringIcSt11char_traitsIcESaIcEEE
FNDA:20,_ZN5ListS4NodeC2ERKNSt7__cxx1112basic_stringIcSt11char_traitsIcESaIcEEE
FNDA:1,_ZN5ListS18loadFromBinaryFileERKNSt7__cxx1112basic_stringIcSt11char_traitsIcESaIcEEE
FNDA:15,_ZNK5ListS7getHeadEv
FNDA:12,_ZNK5ListS7getTailEv
FNDA:12,_ZN5ListSC2Ev
FNDA:12,_ZN5ListSD2Ev
FNDA:13,_ZN5ListS5pushhERKNSt7__cxx1112basic_stringIcSt11char_traitsIcESaIcEEE
FNDA:7,_ZN5ListS5pushtERKNSt7__cxx1112basic_stringIcSt11char_traitsIcESaIcEEE
FNDA:4,_ZN5ListS4delhB5cxx11Ev
FNDA:3,_ZN5ListS4deltB5cxx11Ev
FNDA:2,_ZN5ListS4delvERKNSt7__cxx1112basic_stringIcSt11char_traitsIcESaIcEEE
FNF:13
FNH:13
DA:13,20
DA:20,12
DA:22,12
DA:23,38
DA:24,14
DA:25,14
DA:26,14
DA:28,12
DA:30,13
DA:31,13
DA:32,13
DA:33,13
DA:34,13
DA:35,7
DA:37,13
DA:39,7
DA:40,7
DA:41,7
DA:42,5
DA:44,2
DA:45,2
DA:47,7
DA:49,4
DA:50,4
DA:51,0
DA:53,4
DA:54,4
DA:55,4
DA:56,2
DA:58,4
DA:59,8
DA:62,3
DA:63,3
DA:64,2
DA:66,2
DA:67,1
DA:68,1
DA:69,2
DA:71,1
DA:72,1
DA:73,0
DA:75,1
DA:76,1
DA:77,1
DA:78,2
DA:81,2
DA:82,2
DA:83,0
DA:85,2
DA:86,1
DA:87,2
DA:89,1
DA:90,2
DA:91,1
DA:93,1
DA:94,2
DA:96,0
DA:97,0
DA:98,0
DA:99,0
DA:101,0
DA:102,0
DA:105,1
DA:106,1
DA:107,1
DA:108,4
DA:109,3
DA:110,3
DA:111,2
DA:113,3
DA:115,1
DA:116,1
DA:119,1
DA:120,1
DA:121,1
DA:122,2
DA:123,1
DA:124,1
DA:125,1
DA:126,1
DA:128,1
DA:129,1
DA:132,1
DA:133,1
DA:134,2
DA:136,2
DA:138,1
DA:139,1
DA:141,1
DA:142,1
DA:143,1
DA:144,1
DA:147,15
DA:148,15
DA:151,12
DA:152,12
LF:96
LH:87
end_of_record
TN:
SF:/home/randred/Desktop/lab3/libs/massive.h
FN:102,116,_ZNK8StrArray9serializeERKNSt7__cxx1112basic_stringIcSt11char_traitsIcESaIcEEE
FN:119,139,_ZN8StrArray11deserializeERKNSt7__cxx1112basic_stringIcSt11char_traitsIcESaIcEEE
FN:13,17,_ZN8StrArrayC2Em
FN:141,143,_ZNK8StrArray11getCapacityEv
FN:20,22,_ZN8StrArrayD2Ev
FN:24,33,_ZN8StrArray6resizeEv
FN:35,40,_ZN8StrArray4pushERKNSt7__cxx1112basic_stringIcSt11char_traitsIcESaIcEEE
FN:42,44,_ZNK8StrArray5sizeMEv
FN:46,60,_ZN8StrArray5pushiEmRKNSt7__cxx1112basic_stringIcSt11char_traitsIcESaIcEEE
FN:62,69,_ZN8StrArray3getEmRNSt7__cxx1112basic_stringIcSt11char_traitsIcESaIcEEE
FN:71,77,_ZN8StrArray7replaceEmRKNSt7__cxx1112basic_stringIcSt11char_traitsIcESaIcEEE
FN:79,88,_ZN8StrArray3delEm
FN:90,99,_ZNK8StrArray10saveToFileERKNSt7__cxx1112basic_stringIcSt11char_traitsIcESaIcEEE
FNDA:1,_ZNK8StrArray9serializeERKNSt7__cxx1112basic_stringIcSt11char_traitsIcESaIcEEE
FNDA:1,_ZN8StrArray11deserializeERKNSt7__cxx1112basic_stringIcSt11char_traitsIcESaIcEEE
FNDA:11,_ZN8StrArrayC2Em
FNDA:4,_ZNK8StrArray11getCapacityEv
FNDA:11,_ZN8StrArrayD2Ev
FNDA:1,_ZN8StrArray6resizeEv
FNDA:23,_ZN8StrArray4pushERKNSt7__cxx1112basic_stringIcSt11char_traitsIcESaIcEEE
FNDA:14,_ZNK8StrArray5sizeMEv
FNDA:2,_ZN8StrArray5pushiEmRKNSt7__cxx1112basic_stringIcSt11char_traitsIcESaIcEEE
FNDA:21,_ZN8StrArray3getEmRNSt7__cxx1112basic_stringIcSt11char_traitsIcESaIcEEE
FNDA:1,_ZN8StrArray7replaceEmRKNSt7__cxx1112basic_stringIcSt11char_traitsIcESaIcEEE
FNDA:1,_ZN8StrArray3delEm
FNDA:1,_ZNK8StrArray10saveToFileERKNSt7__cxx1112basic_stringIcSt11char_traitsIcESaIcEEE
FNF:13
FNH:13
DA:13,11
DA:14,11
DA:15,11
DA:16,63
DA:17,11
DA:20,11
DA:21,65
DA:22,11
DA:24,1
DA:25,1
DA:26,5
DA:27,3
DA:28,2
DA:30,3
DA:31,1
DA:32,1
DA:33,1
DA:35,23
DA:36,23
DA:37,1
DA:39,23
DA:40,23
DA:42,14
DA:43,14
DA:46,2
DA:47,2
DA:48,1
DA:49,1
DA:51,1
DA:52,0
DA:55,2
DA:56,1
DA:58,1
DA:59,1
DA:62,21
DA:63,21
DA:65,1
DA:67,20
DA:68,20
DA:71,1
DA:72,1
DA:73,0
DA:74,0
DA:76,1
DA:79,1
DA:80,1
DA:81,0
DA:82,0
DA:84,2
DA:85,1
DA:87,1
DA:90,1
DA:91,1
DA:92,4
DA:93,3
DA:94,3
DA:95,2
DA:98,1
DA:99,1
DA:102,1
DA:103,1
DA:104,1
DA:105,0
DA:106,0
DA:108,1
DA:109,1
DA:110,5
DA:111,4
DA:112,4
DA:113,4
DA:115,1
DA:116,1
DA:119,1
DA:120,1
DA:121,1
DA:122,0
DA:123,0
DA:125,1
DA:126,1
DA:127,6
DA:128,6
DA:129,5
DA:131,4
DA:132,4
DA:133,4
DA:134,4
DA:135,4
DA:136,4
DA:138,1
DA:139,1
DA:141,4
DA:142,4
LF:92
LH:83
end_of_record
TN:
SF:/home/randred/Desktop/lab3/libs/queue.h
FN:14,14,_ZN5Queue4NodeC2ERKNSt7__cxx1112basic_stringIcSt11char_traitsIcESaIcEEE
FN:21,21,_ZN5QueueC2Ev
FN:23,29,_ZN5QueueD2Ev
FN:31,40,_ZN5Queue4pushERKNSt7__cxx1112basic_stringIcSt11char_traitsIcESaIcEEE
FN:42,51,_ZN5Queue3delEv
FN:53,64,_ZN5Queue10saveToFileERKNSt7__cxx1112basic_stringIcSt11char_traitsIcESaIcEEE
FN:67,77,_ZN5Queue16saveToBinaryFileERKNSt7__cxx1112basic_stringIcSt11char_traitsIcESaIcEEE
FN:80,92,_ZN5Queue18loadFromBinaryFileERKNSt7__cxx1112basic_stringIcSt11char_traitsIcESaIcEEE
FN:94,96,_ZNK5Queue7getHeadEv
FN:98,100,_ZNK5Queue7getTailEv
FNDA:10,_ZN5Queue4NodeC2ERKNSt7__cxx1112basic_stringIcSt11char_traitsIcESaIcEEE
FNDA:6,_ZN5QueueC2Ev
FNDA:6,_ZN5QueueD2Ev
FNDA:10,_ZN5Queue4pushERKNSt7__cxx1112basic_stringIcSt11char_traitsIcESaIcEEE
FNDA:2,_ZN5Queue3delEv
FNDA:1,_ZN5Queue10saveToFileERKNSt7__cxx1112basic_stringIcSt11char_traitsIcESaIcEEE
FNDA:1,_ZN5Queue16saveToBinaryFileERKNSt7__cxx1112basic_stringIcSt11char_traitsIcESaIcEEE
FNDA:1,_ZN5Queue18loadFromBinaryFileERKNSt7__cxx1112basic_stringIcSt11char_traitsIcESaIcEEE
FNDA:7,_ZNK5Queue7getHeadEv
FNDA:8,_ZNK5Queue7getTailEv
FNF:10
FNH:10
DA:14,10
DA:21,6
DA:23,6
DA:24,20
DA:25,8
DA:26,8
DA:27,8
DA:29,6
DA:31,10
DA:32,10
DA:33,10
DA:34,6
DA:36,4
DA:37,4
DA:38,4
DA:40,10
DA:42,2
DA:43,2
DA:44,2
DA:45,2
DA:46,1
DA:48,1
DA:50,2
DA:51,2
DA:53,1
DA:54,1
DA:55,1
DA:56,4
DA:57,3
DA:58,3
DA:59,2
DA:61,3
DA:63,1
DA:64,1
DA:67,1
DA:68,1
DA:69,1
DA:70,2
DA:71,1
DA:72,1
DA:73,1
DA:74,1
DA:76,1
DA:77,1
DA:80,1
DA:81,1
DA:82,2
DA:84,2
DA:86,1
DA:87,1
DA:89,1
DA:90,1
DA:91,1
DA:92,1
DA:94,7
DA:95,7
DA:98,8
DA:99,8
LF:58
LH:58
end_of_record
TN:
SF:/home/randred/Desktop/lab3/libs/stack.h
FN:13,13,_ZN5Stack4NodeC2ERKNSt7__cxx1112basic_stringIcSt11char_traitsIcESaIcEEE
FN:19,19,_ZN5StackC2Ev
FN:21,27,_ZN5StackD2Ev
FN:29,33,_ZN5Stack4pushERKNSt7__cxx1112basic_stringIcSt11char_traitsIcESaIcEEE
FN:35,41,_ZN5Stack3delEv
FN:43,54,_ZN5Stack10saveToFileERKNSt7__cxx1112basic_stringIcSt11char_traitsIcESaIcEEE
FN:57,67,_ZN5Stack16saveToBinaryFileERKNSt7__cxx1112basic_stringIcSt11char_traitsIcESaIcEEE
FN:70,82,_ZN5Stack18loadFromBinaryFileERKNSt7__cxx1112basic_stringIcSt11char_traitsIcESaIcEEE
FN:85,87,_ZNK5Stack6getTopEv
FNDA:10,_ZN5Stack4NodeC2ERKNSt7__cxx1112basic_stringIcSt11char_traitsIcESaIcEEE
FNDA:6,_ZN5StackC2Ev
FNDA:6,_ZN5StackD2Ev
FNDA:10,_ZN5Stack4pushERKNSt7__cxx1112basic_stringIcSt11char_traitsIcESaIcEEE
FNDA:2,_ZN5Stack3delEv
FNDA:1,_ZN5Stack10saveToFileERKNSt7__cxx1112basic_stringIcSt11char_traitsIcESaIcEEE
FNDA:1,_ZN5Stack16saveToBinaryFileERKNSt7__cxx1112basic_stringIcSt11char_traitsIcESaIcEEE
FNDA:1,_ZN5Stack18loadFromBinaryFileERKNSt7__cxx1112basic_stringIcSt11char_traitsIcESaIcEEE
FNDA:8,_ZNK5Stack6getTopEv
FNF:9
FNH:9
DA:13,10
DA:19,6
DA:21,6
DA:22,20
DA:23,8
DA:24,8
DA:25,8
DA:27,6
DA:29,10
DA:30,10
DA:31,10
DA:32,10
DA:33,10
DA:35,2
DA:36,2
DA:37,2
DA:38,2
DA:39,2
DA:41,2
DA:43,1
DA:44,1
DA:45,1
DA:46,4
DA:47,3
DA:48,3
DA:49,2
DA:51,3
DA:53,1
DA:54,1
DA:57,1
DA:58,1
DA:59,1
DA:60,2
DA:61,1
DA:62,1
DA:63,1
DA:64,1
DA:66,1
DA:67,1
DA:70,1
DA:71,1
DA:72,2
DA:74,2
DA:76,1
DA:77,1
DA:79,1
DA:80,1
DA:81,1
DA:82,1
DA:85,8
DA:86,8
LF:51
LH:51
end_of_record
TN:
SF:/home/randred/Desktop/lab3/libs/tree.h
FN:107,115,_ZNK7AVLTree12minValueNodeEPNS_4NodeE
FN:117,167,_ZN7AVLTree10deleteNodeEPNS_4NodeEi
FN:12,12,_ZN7AVLTree4NodeC2Ei
FN:169,180,_ZNK7AVLTree5printEPNS_4NodeEii
FN:18,20,_ZNK7AVLTree6heightEPNS_4NodeE
FN:182,189,_ZN7AVLTree4freeEPNS_4NodeE
FN:191,201,_ZNK7AVLTree11writeToFileEPNS_4NodeERSt14basic_ofstreamIcSt11char_traitsIcEEii
FN:204,204,_ZN7AVLTreeC2Ev
FN:206,208,_ZN7AVLTreeD2Ev
FN:210,215,_ZNK7AVLTree9serializeERKNSt7__cxx1112basic_stringIcSt11char_traitsIcESaIcEEE
FN:218,231,_ZNK7AVLTree13serializeNodeEPNS_4NodeERSt14basic_ofstreamIcSt11char_traitsIcEE
FN:22,24,_ZNK7AVLTree10getBalanceEPNS_4NodeE
FN:234,240,_ZN7AVLTree11deserializeERKNSt7__cxx1112basic_stringIcSt11char_traitsIcESaIcEEE
FN:243,259,_ZN7AVLTree15deserializeNodeERSt14basic_ifstreamIcSt11char_traitsIcEE
FN:26,30,_ZN7AVLTree12updateHeightEPNS_4NodeE
FN:261,263,_ZNK7AVLTree9getHeightEv
FN:265,267,_ZNK7AVLTree10getBalanceEv
FN:269,272,_ZNK7AVLTree11getMinValueEv
FN:274,276,_ZN7AVLTree6insertEi
FN:278,280,_ZNK7AVLTree6searchEi
FN:282,284,_ZN7AVLTree6removeEi
FN:286,288,_ZNK7AVLTree5printEv
FN:290,293,_ZN7AVLTree5clearEv
FN:295,300,_ZNK7AVLTree11writeToFileERKNSt7__cxx1112basic_stringIcSt11char_traitsIcESaIcEEE
FN:32,43,_ZN7AVLTree11rotateRightEPNS_4NodeE
FN:45,56,_ZN7AVLTree10rotateLeftEPNS_4NodeE
FN:58,93,_ZN7AVLTree6insertEPNS_4NodeEi
FN:95,105,_ZNK7AVLTree6searchEPNS_4NodeEi
FNDA:5,_ZNK7AVLTree12minValueNodeEPNS_4NodeE
FNDA:9,_ZN7AVLTree10deleteNodeEPNS_4NodeEi
FNDA:46,_ZN7AVLTree4NodeC2Ei
FNDA:7,_ZNK7AVLTree5printEPNS_4NodeEii
FNDA:248,_ZNK7AVLTree6heightEPNS_4NodeE
FNDA:111,_ZN7AVLTree4freeEPNS_4NodeE
FNDA:7,_ZNK7AVLTree11writeToFileEPNS_4NodeERSt14basic_ofstreamIcSt11char_traitsIcEEii
FNDA:20,_ZN7AVLTreeC2Ev
FNDA:20,_ZN7AVLTreeD2Ev
FNDA:3,_ZNK7AVLTree9serializeERKNSt7__cxx1112basic_stringIcSt11char_traitsIcESaIcEEE
FNDA:11,_ZNK7AVLTree13serializeNodeEPNS_4NodeERSt14basic_ofstreamIcSt11char_traitsIcEE
FNDA:50,_ZNK7AVLTree10getBalanceEPNS_4NodeE
FNDA:3,_ZN7AVLTree11deserializeERKNSt7__cxx1112basic_stringIcSt11char_traitsIcESaIcEEE
FNDA:11,_ZN7AVLTree15deserializeNodeERSt14basic_ifstreamIcSt11char_traitsIcEE
FNDA:72,_ZN7AVLTree12updateHeightEPNS_4NodeE
FNDA:4,_ZNK7AVLTree9getHeightEv
FNDA:4,_ZNK7AVLTree10getBalanceEv
FNDA:4,_ZNK7AVLTree11getMinValueEv
FNDA:44,_ZN7AVLTree6insertEi
FNDA:36,_ZNK7AVLTree6searchEi
FNDA:5,_ZN7AVLTree6removeEi
FNDA:1,_ZNK7AVLTree5printEv
FNDA:25,_ZN7AVLTree5clearEv
FNDA:1,_ZNK7AVLTree11writeToFileERKNSt7__cxx1112basic_stringIcSt11char_traitsIcESaIcEEE
FNDA:3,_ZN7AVLTree11rotateRightEPNS_4NodeE
FNDA:10,_ZN7AVLTree10rotateLeftEPNS_4NodeE
FNDA:90,_ZN7AVLTree6insertEPNS_4NodeEi
FNDA:56,_ZNK7AVLTree6searchEPNS_4NodeEi
FNF:28
FNH:28
DA:12,46
DA:18,248
DA:19,248
DA:22,50
DA:23,50
DA:26,72
DA:27,72
DA:28,72
DA:30,72
DA:32,3
DA:33,3
DA:34,3
DA:36,3
DA:37,3
DA:39,3
DA:40,3
DA:42,3
DA:45,10
DA:46,10
DA:47,10
DA:49,10
DA:50,10
DA:52,10
DA:53,10
DA:55,10
DA:58,90
DA:59,90
DA:61,44
DA:62,11
DA:63,33
DA:64,31
DA:66,2
DA:69,42
DA:71,42
DA:74,42
DA:75,1
DA:78,41
DA:79,8
DA:82,33
DA:83,1
DA:84,1
DA:87,32
DA:88,1
DA:89,1
DA:92,31
DA:95,56
DA:96,56
DA:97,36
DA:100,20
DA:101,5
DA:104,15
DA:107,5
DA:108,5
DA:110,10
DA:111,5
DA:114,5
DA:117,9
DA:118,9
DA:120,7
DA:121,1
DA:122,6
DA:123,2
DA:125,4
DA:126,3
DA:128,3
DA:129,3
DA:130,3
DA:132,0
DA:134,3
DA:135,3
DA:136,1
DA:137,1
DA:138,1
DA:142,7
DA:144,4
DA:146,4
DA:148,4
DA:149,0
DA:152,4
DA:153,0
DA:156,4
DA:157,0
DA:158,0
DA:161,4
DA:162,0
DA:163,0
DA:166,4
DA:169,7
DA:170,7
DA:172,3
DA:174,3
DA:177,3
DA:179,3
DA:182,111
DA:183,111
DA:185,43
DA:186,43
DA:188,43
DA:191,7
DA:192,7
DA:194,3
DA:196,3
DA:198,3
DA:200,3
DA:204,20
DA:206,20
DA:207,20
DA:208,20
DA:210,3
DA:211,3
DA:213,3
DA:214,3
DA:215,3
DA:218,11
DA:219,11
DA:220,7
DA:221,7
DA:222,7
DA:225,4
DA:226,4
DA:227,4
DA:229,4
DA:230,4
DA:234,3
DA:235,3
DA:237,3
DA:238,3
DA:239,3
DA:240,3
DA:243,11
DA:245,11
DA:247,11
DA:248,7
DA:252,4
DA:254,4
DA:257,4
DA:258,4
DA:261,4
DA:262,4
DA:265,4
DA:266,4
DA:269,4
DA:270,4
DA:271,4
DA:274,44
DA:275,44
DA:276,44
DA:278,36
DA:279,36
DA:282,5
DA:283,5
DA:284,5
DA:286,1
DA:287,1
DA:288,1
DA:290,25
DA:291,25
DA:292,25
DA:293,25
DA:295,1
DA:296,1
DA:298,1
DA:299,1
DA:300,1
LF:164
LH:157
end_of_record
TN:
SF:/home/randred/Desktop/lab3/tests/test.cpp
FN:1005,1008,main
FN:102,102,_ZN24StrArrayTest_Delete_Test8TestBodyEv
FN:102,102,_ZN24StrArrayTest_Delete_TestC2Ev
FN:102,102,_ZN24StrArrayTest_Delete_TestD0Ev
FN:102,102,_ZN24StrArrayTest_Delete_TestD2Ev
FN:117,117,_ZN28StrArrayTest_SaveToFile_Test8TestBodyEv
FN:117,117,_ZN28StrArrayTest_SaveToFile_TestC2Ev
FN:117,117,_ZN28StrArrayTest_SaveToFile_TestD0Ev
FN:117,117,_ZN28StrArrayTest_SaveToFile_TestD2Ev
FN:13,13,_ZN32StrArrayTest_Initialization_Test8TestBodyEv
FN:13,13,_ZN32StrArrayTest_Initialization_TestC2Ev
FN:13,13,_ZN32StrArrayTest_Initialization_TestD0Ev
FN:13,13,_ZN32StrArrayTest_Initialization_TestD2Ev
FN:132,132,_ZN38StrArrayTest_SerializeDeserialize_Test8TestBodyEv
FN:132,132,_ZN38StrArrayTest_SerializeDeserialize_TestC2Ev
FN:132,132,_ZN38StrArrayTest_SerializeDeserialize_TestD0Ev
FN:132,132,_ZN38StrArrayTest_SerializeDeserialize_TestD2Ev
FN:159,159,_ZN34HashTableTest_CreateHashTable_Test8TestBodyEv
FN:159,159,_ZN34HashTableTest_CreateHashTable_TestC2Ev
FN:159,159,_ZN34HashTableTest_CreateHashTable_TestD0Ev
FN:159,159,_ZN34HashTableTest_CreateHashTable_TestD2Ev
FN:165,165,_ZN34HashTableTest_PushExistingKey_Test8TestBodyEv
FN:165,165,_ZN34HashTableTest_PushExistingKey_TestC2Ev
FN:165,165,_ZN34HashTableTest_PushExistingKey_TestD0Ev
FN:165,165,_ZN34HashTableTest_PushExistingKey_TestD2Ev
FN:175,175,_ZN30HashTableTest_PushSuccess_Test8TestBodyEv
FN:175,175,_ZN30HashTableTest_PushSuccess_TestC2Ev
FN:175,175,_ZN30HashTableTest_PushSuccess_TestD0Ev
FN:175,175,_ZN30HashTableTest_PushSuccess_TestD2Ev
FN:184,184,_ZN33HashTableTest_GetKeyNotFound_Test8TestBodyEv
FN:184,184,_ZN33HashTableTest_GetKeyNotFound_TestC2Ev
FN:184,184,_ZN33HashTableTest_GetKeyNotFound_TestD0Ev
FN:184,184,_ZN33HashTableTest_GetKeyNotFound_TestD2Ev
FN:191,191,_ZN30HashTableTest_GetKeyFound_Test8TestBodyEv
FN:191,191,_ZN30HashTableTest_GetKeyFound_TestC2Ev
FN:191,191,_ZN30HashTableTest_GetKeyFound_TestD0Ev
FN:191,191,_ZN30HashTableTest_GetKeyFound_TestD2Ev
FN:200,200,_ZN35HashTableTest_DeleteKeySuccess_Test8TestBodyEv
FN:200,200,_ZN35HashTableTest_DeleteKeySuccess_TestC2Ev
FN:200,200,_ZN35HashTableTest_DeleteKeySuccess_TestD0Ev
FN:200,200,_ZN35HashTableTest_DeleteKeySuccess_TestD2Ev
FN:209,212,_ZN36HashTableTest_DeleteKeyNotFound_Test8TestBodyEv
FN:209,212,_ZN36HashTableTest_DeleteKeyNotFound_TestC2Ev
FN:209,212,_ZN36HashTableTest_DeleteKeyNotFound_TestD0Ev
FN:209,212,_ZN36HashTableTest_DeleteKeyNotFound_TestD2Ev
FN:21,21,_ZN22StrArrayTest_Push_Test8TestBodyEv
FN:21,21,_ZN22StrArrayTest_Push_TestC2Ev
FN:21,21,_ZN22StrArrayTest_Push_TestD0Ev
FN:21,21,_ZN22StrArrayTest_Push_TestD2Ev
FN:215,230,_ZN38HashTableTest_SaveAndLoadFromFile_Test8TestBodyEv
FN:215,230,_ZN38HashTableTest_SaveAndLoadFromFile_TestC2Ev
FN:215,230,_ZN38HashTableTest_SaveAndLoadFromFile_TestD0Ev
FN:215,230,_ZN38HashTableTest_SaveAndLoadFromFile_TestD2Ev
FN:233,250,_ZN42HashTableTest_LargeNumberOfOperations_Test8TestBodyEv
FN:233,250,_ZN42HashTableTest_LargeNumberOfOperations_TestC2Ev
FN:233,250,_ZN42HashTableTest_LargeNumberOfOperations_TestD0Ev
FN:233,250,_ZN42HashTableTest_LargeNumberOfOperations_TestD2Ev
FN:253,253,_ZN35HashTableTest_SaveToBinaryFile_Test8TestBodyEv
FN:253,253,_ZN35HashTableTest_SaveToBinaryFile_TestC2Ev
FN:253,253,_ZN35HashTableTest_SaveToBinaryFile_TestD0Ev
FN:253,253,_ZN35HashTableTest_SaveToBinaryFile_TestD2Ev
FN:280,280,_ZN37HashTableTest_LoadFromBinaryFile_Test8TestBodyEv
FN:280,280,_ZN37HashTableTest_LoadFromBinaryFile_TestC2Ev
FN:280,280,_ZN37HashTableTest_LoadFromBinaryFile_TestD0Ev
FN:280,280,_ZN37HashTableTest_LoadFromBinaryFile_TestD2Ev
FN:298,298,_ZN25ListDTest_CreateList_Test8TestBodyEv
FN:298,298,_ZN25ListDTest_CreateList_TestC2Ev
FN:298,298,_ZN25ListDTest_CreateList_TestD0Ev
FN:298,298,_ZN25ListDTest_CreateList_TestD2Ev
FN:305,305,_ZN23ListDTest_PushHead_Test8TestBodyEv
FN:305,305,_ZN23ListDTest_PushHead_TestC2Ev
FN:305,305,_ZN23ListDTest_PushHead_TestD0Ev
FN:305,305,_ZN23ListDTest_PushHead_TestD2Ev
FN:318,318,_ZN23ListDTest_PushTail_Test8TestBodyEv
FN:318,318,_ZN23ListDTest_PushTail_TestC2Ev
FN:318,318,_ZN23ListDTest_PushTail_TestD0Ev
FN:318,318,_ZN23ListDTest_PushTail_TestD2Ev
FN:331,331,_ZN25ListDTest_DeleteHead_Test8TestBodyEv
FN:331,331,_ZN25ListDTest_DeleteHead_TestC2Ev
FN:331,331,_ZN25ListDTest_DeleteHead_TestD0Ev
FN:331,331,_ZN25ListDTest_DeleteHead_TestD2Ev
FN:346,346,_ZN25ListDTest_DeleteTail_Test8TestBodyEv
FN:346,346,_ZN25ListDTest_DeleteTail_TestC2Ev
FN:346,346,_ZN25ListDTest_DeleteTail_TestD0Ev
FN:346,346,_ZN25ListDTest_DeleteTail_TestD2Ev
FN:35,35,_ZN24StrArrayTest_Resize_Test8TestBodyEv
FN:35,35,_ZN24StrArrayTest_Resize_TestC2Ev
FN:35,35,_ZN24StrArrayTest_Resize_TestD0Ev
FN:35,35,_ZN24StrArrayTest_Resize_TestD2Ev
FN:361,361,_ZN26ListDTest_DeleteValue_Test8TestBodyEv
FN:361,361,_ZN26ListDTest_DeleteValue_TestC2Ev
FN:361,361,_ZN26ListDTest_DeleteValue_TestD0Ev
FN:361,361,_ZN26ListDTest_DeleteValue_TestD2Ev
FN:381,381,_ZN24ListDTest_PrintList_Test8TestBodyEv
FN:381,381,_ZN24ListDTest_PrintList_TestC2Ev
FN:381,381,_ZN24ListDTest_PrintList_TestD0Ev
FN:381,381,_ZN24ListDTest_PrintList_TestD2Ev
FN:394,394,_ZN25ListDTest_SaveToFile_Test8TestBodyEv
FN:394,394,_ZN25ListDTest_SaveToFile_TestC2Ev
FN:394,394,_ZN25ListDTest_SaveToFile_TestD0Ev
FN:394,394,_ZN25ListDTest_SaveToFile_TestD2Ev
FN:411,411,_ZN27ListDTest_LoadFromFile_Test8TestBodyEv
FN:411,411,_ZN27ListDTest_LoadFromFile_TestC2Ev
FN:411,411,_ZN27ListDTest_LoadFromFile_TestD0Ev
FN:411,411,_ZN27ListDTest_LoadFromFile_TestD2Ev
FN:444,444,_ZN31ListDTest_SaveToBinaryFile_Test8TestBodyEv
FN:444,444,_ZN31ListDTest_SaveToBinaryFile_TestC2Ev
FN:444,444,_ZN31ListDTest_SaveToBinaryFile_TestD0Ev
FN:444,444,_ZN31ListDTest_SaveToBinaryFile_TestD2Ev
FN:45,45,_ZN23StrArrayTest_Pushi_Test8TestBodyEv
FN:45,45,_ZN23StrArrayTest_Pushi_TestC2Ev
FN:45,45,_ZN23StrArrayTest_Pushi_TestD0Ev
FN:45,45,_ZN23StrArrayTest_Pushi_TestD2Ev
FN:466,466,_ZN33ListDTest_LoadFromBinaryFile_Test8TestBodyEv
FN:466,466,_ZN33ListDTest_LoadFromBinaryFile_TestC2Ev
FN:466,466,_ZN33ListDTest_LoadFromBinaryFile_TestD0Ev
FN:466,466,_ZN33ListDTest_LoadFromBinaryFile_TestD2Ev
FN:487,487,_ZN25ListSTest_CreateList_Test8TestBodyEv
FN:487,487,_ZN25ListSTest_CreateList_TestC2Ev
FN:487,487,_ZN25ListSTest_CreateList_TestD0Ev
FN:487,487,_ZN25ListSTest_CreateList_TestD2Ev
FN:494,504,_ZN23ListSTest_PushHead_Test8TestBodyEv
FN:494,504,_ZN23ListSTest_PushHead_TestC2Ev
FN:494,504,_ZN23ListSTest_PushHead_TestD0Ev
FN:494,504,_ZN23ListSTest_PushHead_TestD2Ev
FN:507,517,_ZN23ListSTest_PushTail_Test8TestBodyEv
FN:507,517,_ZN23ListSTest_PushTail_TestC2Ev
FN:507,517,_ZN23ListSTest_PushTail_TestD0Ev
FN:507,517,_ZN23ListSTest_PushTail_TestD2Ev
FN:520,532,_ZN25ListSTest_DeleteHead_Test8TestBodyEv
FN:520,532,_ZN25ListSTest_DeleteHead_TestC2Ev
FN:520,532,_ZN25ListSTest_DeleteHead_TestD0Ev
FN:520,532,_ZN25ListSTest_DeleteHead_TestD2Ev
FN:535,535,_ZN25ListSTest_DeleteTail_Test8TestBodyEv
FN:535,535,_ZN25ListSTest_DeleteTail_TestC2Ev
FN:535,535,_ZN25ListSTest_DeleteTail_TestD0Ev
FN:535,535,_ZN25ListSTest_DeleteTail_TestD2Ev
FN:550,556,_ZN30ListSTest_DelvHeadElement_Test8TestBodyEv
FN:550,556,_ZN30ListSTest_DelvHeadElement_TestC2Ev
FN:550,556,_ZN30ListSTest_DelvHeadElement_TestD0Ev
FN:550,556,_ZN30ListSTest_DelvHeadElement_TestD2Ev
FN:559,565,_ZN36ListSTest_DelhSingleElementList_Test8TestBodyEv
FN:559,565,_ZN36ListSTest_DelhSingleElementList_TestC2Ev
FN:559,565,_ZN36ListSTest_DelhSingleElementList_TestD0Ev
FN:559,565,_ZN36ListSTest_DelhSingleElementList_TestD2Ev
FN:568,568,_ZN28ListSTest_DeltEmptyList_Test8TestBodyEv
FN:568,568,_ZN28ListSTest_DeltEmptyList_TestC2Ev
FN:568,568,_ZN28ListSTest_DeltEmptyList_TestD0Ev
FN:568,568,_ZN28ListSTest_DeltEmptyList_TestD2Ev
FN:574,579,_ZN34ListSTest_DelvElementNotFound_Test8TestBodyEv
FN:574,579,_ZN34ListSTest_DelvElementNotFound_TestC2Ev
FN:574,579,_ZN34ListSTest_DelvElementNotFound_TestD0Ev
FN:574,579,_ZN34ListSTest_DelvElementNotFound_TestD2Ev
FN:582,582,_ZN25ListSTest_SaveToFile_Test8TestBodyEv
FN:582,582,_ZN25ListSTest_SaveToFile_TestC2Ev
FN:582,582,_ZN25ListSTest_SaveToFile_TestD0Ev
FN:582,582,_ZN25ListSTest_SaveToFile_TestD2Ev
FN:601,601,_ZN43ListSTest_SerializationDeserialization_Test8TestBodyEv
FN:601,601,_ZN43ListSTest_SerializationDeserialization_TestC2Ev
FN:601,601,_ZN43ListSTest_SerializationDeserialization_TestD0Ev
FN:601,601,_ZN43ListSTest_SerializationDeserialization_TestD2Ev
FN:61,75,_ZN34StrArrayTest_PushiOutOfBounds_Test8TestBodyEv
FN:61,75,_ZN34StrArrayTest_PushiOutOfBounds_TestC2Ev
FN:61,75,_ZN34StrArrayTest_PushiOutOfBounds_TestD0Ev
FN:61,75,_ZN34StrArrayTest_PushiOutOfBounds_TestD2Ev
FN:620,620,_ZN26QueueTest_CreateQueue_Test8TestBodyEv
FN:620,620,_ZN26QueueTest_CreateQueue_TestC2Ev
FN:620,620,_ZN26QueueTest_CreateQueue_TestD0Ev
FN:620,620,_ZN26QueueTest_CreateQueue_TestD2Ev
FN:627,627,_ZN19QueueTest_Push_Test8TestBodyEv
FN:627,627,_ZN19QueueTest_Push_TestC2Ev
FN:627,627,_ZN19QueueTest_Push_TestD0Ev
FN:627,627,_ZN19QueueTest_Push_TestD2Ev
FN:640,640,_ZN21QueueTest_Delete_Test8TestBodyEv
FN:640,640,_ZN21QueueTest_Delete_TestC2Ev
FN:640,640,_ZN21QueueTest_Delete_TestD0Ev
FN:640,640,_ZN21QueueTest_Delete_TestD2Ev
FN:655,655,_ZN25QueueTest_SaveToFile_Test8TestBodyEv
FN:655,655,_ZN25QueueTest_SaveToFile_TestC2Ev
FN:655,655,_ZN25QueueTest_SaveToFile_TestD0Ev
FN:655,655,_ZN25QueueTest_SaveToFile_TestD2Ev
FN:674,674,_ZN43QueueTest_SerializationDeserialization_Test8TestBodyEv
FN:674,674,_ZN43QueueTest_SerializationDeserialization_TestC2Ev
FN:674,674,_ZN43QueueTest_SerializationDeserialization_TestD0Ev
FN:674,674,_ZN43QueueTest_SerializationDeserialization_TestD2Ev
FN:693,693,_ZN26StackTest_CreateStack_Test8TestBodyEv
FN:693,693,_ZN26StackTest_CreateStack_TestC2Ev
FN:693,693,_ZN26StackTest_CreateStack_TestD0Ev
FN:693,693,_ZN26StackTest_CreateStack_TestD2Ev
FN:699,699,_ZN19StackTest_Push_Test8TestBodyEv
FN:699,699,_ZN19StackTest_Push_TestC2Ev
FN:699,699,_ZN19StackTest_Push_TestD0Ev
FN:699,699,_ZN19StackTest_Push_TestD2Ev
FN:710,710,_ZN21StackTest_Delete_Test8TestBodyEv
FN:710,710,_ZN21StackTest_Delete_TestC2Ev
FN:710,710,_ZN21StackTest_Delete_TestD0Ev
FN:710,710,_ZN21StackTest_Delete_TestD2Ev
FN:723,723,_ZN25StackTest_SaveToFile_Test8TestBodyEv
FN:723,723,_ZN25StackTest_SaveToFile_TestC2Ev
FN:723,723,_ZN25StackTest_SaveToFile_TestD0Ev
FN:723,723,_ZN25StackTest_SaveToFile_TestD2Ev
FN:742,742,_ZN43StackTest_SerializationDeserialization_Test8TestBodyEv
FN:742,742,_ZN43StackTest_SerializationDeserialization_TestC2Ev
FN:742,742,_ZN43StackTest_SerializationDeserialization_TestD0Ev
FN:742,742,_ZN43StackTest_SerializationDeserialization_TestD2Ev
FN:759,759,_ZN32AVLTreeTest_InsertAndSearch_Test8TestBodyEv
FN:759,759,_ZN32AVLTreeTest_InsertAndSearch_TestC2Ev
FN:759,759,_ZN32AVLTreeTest_InsertAndSearch_TestD0Ev
FN:759,759,_ZN32AVLTreeTest_InsertAndSearch_TestD2Ev
FN:772,772,_ZN23AVLTreeTest_Remove_Test8TestBodyEv
FN:772,772,_ZN23AVLTreeTest_Remove_TestC2Ev
FN:772,772,_ZN23AVLTreeTest_Remove_TestD0Ev
FN:772,772,_ZN23AVLTreeTest_Remove_TestD2Ev
FN:78,78,_ZN21StrArrayTest_Get_Test8TestBodyEv
FN:78,78,_ZN21StrArrayTest_Get_TestC2Ev
FN:78,78,_ZN21StrArrayTest_Get_TestD0Ev
FN:78,78,_ZN21StrArrayTest_Get_TestD2Ev
FN:792,792,_ZN37AVLTreeTest_SerializeDeserialize_Test8TestBodyEv
FN:792,792,_ZN37AVLTreeTest_SerializeDeserialize_TestC2Ev
FN:792,792,_ZN37AVLTreeTest_SerializeDeserialize_TestD0Ev
FN:792,792,_ZN37AVLTreeTest_SerializeDeserialize_TestD2Ev
FN:811,816,_ZN26AVLTreeTest_EmptyTree_Test8TestBodyEv
FN:811,816,_ZN26AVLTreeTest_EmptyTree_TestC2Ev
FN:811,816,_ZN26AVLTreeTest_EmptyTree_TestD0Ev
FN:811,816,_ZN26AVLTreeTest_EmptyTree_TestD2Ev
FN:819,819,_ZN33AVLTreeTest_InsertDuplicates_Test8TestBodyEv
FN:819,819,_ZN33AVLTreeTest_InsertDuplicates_TestC2Ev
FN:819,819,_ZN33AVLTreeTest_InsertDuplicates_TestD0Ev
FN:819,819,_ZN33AVLTreeTest_InsertDuplicates_TestD2Ev
FN:830,830,_ZN34AVLTreeTest_RemoveNonExistent_Test8TestBodyEv
FN:830,830,_ZN34AVLTreeTest_RemoveNonExistent_TestC2Ev
FN:830,830,_ZN34AVLTreeTest_RemoveNonExistent_TestD0Ev
FN:830,830,_ZN34AVLTreeTest_RemoveNonExistent_TestD2Ev
FN:842,842,_ZN46AVLTreeTest_SerializeDeserializeEmptyTree_Test8TestBodyEv
FN:842,842,_ZN46AVLTreeTest_SerializeDeserializeEmptyTree_TestC2Ev
FN:842,842,_ZN46AVLTreeTest_SerializeDeserializeEmptyTree_TestD0Ev
FN:842,842,_ZN46AVLTreeTest_SerializeDeserializeEmptyTree_TestD2Ev
FN:854,865,_ZN54AVLTreeTest_SerializeDeserializeSingleElementTree_Test8TestBodyEv
FN:854,865,_ZN54AVLTreeTest_SerializeDeserializeSingleElementTree_TestC2Ev
FN:854,865,_ZN54AVLTreeTest_SerializeDeserializeSingleElementTree_TestD0Ev
FN:854,865,_ZN54AVLTreeTest_SerializeDeserializeSingleElementTree_TestD2Ev
FN:868,868,_ZN33AVLTreeTest_HeightAndBalance_Test8TestBodyEv
FN:868,868,_ZN33AVLTreeTest_HeightAndBalance_TestC2Ev
FN:868,868,_ZN33AVLTreeTest_HeightAndBalance_TestD0Ev
FN:868,868,_ZN33AVLTreeTest_HeightAndBalance_TestD2Ev
FN:880,880,_ZN29AVLTreeTest_MinValueNode_Test8TestBodyEv
FN:880,880,_ZN29AVLTreeTest_MinValueNode_TestC2Ev
FN:880,880,_ZN29AVLTreeTest_MinValueNode_TestD0Ev
FN:880,880,_ZN29AVLTreeTest_MinValueNode_TestD2Ev
FN:893,893,_ZN26AVLTreeTest_PrintTree_Test8TestBodyEv
FN:893,893,_ZN26AVLTreeTest_PrintTree_TestC2Ev
FN:893,893,_ZN26AVLTreeTest_PrintTree_TestD0Ev
FN:893,893,_ZN26AVLTreeTest_PrintTree_TestD2Ev
FN:91,91,_ZN25StrArrayTest_Replace_Test8TestBodyEv
FN:91,91,_ZN25StrArrayTest_Replace_TestC2Ev
FN:91,91,_ZN25StrArrayTest_Replace_TestD0Ev
FN:91,91,_ZN25StrArrayTest_Replace_TestD2Ev
FN:913,913,_ZN25AVLTreeTest_FreeTree_Test8TestBodyEv
FN:913,913,_ZN25AVLTreeTest_FreeTree_TestC2Ev
FN:913,913,_ZN25AVLTreeTest_FreeTree_TestD0Ev
FN:913,913,_ZN25AVLTreeTest_FreeTree_TestD2Ev
FN:928,928,_ZN28AVLTreeTest_WriteToFile_Test8TestBodyEv
FN:928,928,_ZN28AVLTreeTest_WriteToFile_TestC2Ev
FN:928,928,_ZN28AVLTreeTest_WriteToFile_TestD0Ev
FN:928,928,_ZN28AVLTreeTest_WriteToFile_TestD2Ev
FN:949,949,_ZN26AVLTreeTest_ClearTree_Test8TestBodyEv
FN:949,949,_ZN26AVLTreeTest_ClearTree_TestC2Ev
FN:949,949,_ZN26AVLTreeTest_ClearTree_TestD0Ev
FN:949,949,_ZN26AVLTreeTest_ClearTree_TestD2Ev
FN:964,964,_ZN44AVLTreeTest_InsertRequiresRightRotation_Test8TestBodyEv
FN:964,964,_ZN44AVLTreeTest_InsertRequiresRightRotation_TestC2Ev
FN:964,964,_ZN44AVLTreeTest_InsertRequiresRightRotation_TestD0Ev
FN:964,964,_ZN44AVLTreeTest_InsertRequiresRightRotation_TestD2Ev
FN:978,978,_ZN48AVLTreeTest_InsertRequiresLeftRightRotation_Test8TestBodyEv
FN:978,978,_ZN48AVLTreeTest_InsertRequiresLeftRightRotation_TestC2Ev
FN:978,978,_ZN48AVLTreeTest_InsertRequiresLeftRightRotation_TestD0Ev
FN:978,978,_ZN48AVLTreeTest_InsertRequiresLeftRightRotation_TestD2Ev
FN:992,992,_ZN48AVLTreeTest_InsertRequiresRightLeftRotation_Test8TestBodyEv
FN:992,992,_ZN48AVLTreeTest_InsertRequiresRightLeftRotation_TestC2Ev
FN:992,992,_ZN48AVLTreeTest_InsertRequiresRightLeftRotation_TestD0Ev
FN:992,992,_ZN48AVLTreeTest_InsertRequiresRightLeftRotation_TestD2Ev
FNDA:1,main
FNDA:1,_ZN24StrArrayTest_Delete_Test8TestBodyEv
FNDA:1,_ZN24StrArrayTest_Delete_TestC2Ev
FNDA:1,_ZN24StrArrayTest_Delete_TestD0Ev
FNDA:1,_ZN24StrArrayTest_Delete_TestD2Ev
FNDA:1,_ZN28StrArrayTest_SaveToFile_Test8TestBodyEv
FNDA:1,_ZN28StrArrayTest_SaveToFile_TestC2Ev
FNDA:1,_ZN28StrArrayTest_SaveToFile_TestD0Ev
FNDA:1,_ZN28StrArrayTest_SaveToFile_TestD2Ev
FNDA:1,_ZN32StrArrayTest_Initialization_Test8TestBodyEv
FNDA:1,_ZN32StrArrayTest_Initialization_TestC2Ev
FNDA:1,_ZN32StrArrayTest_Initialization_TestD0Ev
FNDA:1,_ZN32StrArrayTest_Initialization_TestD2Ev
FNDA:1,_ZN38StrArrayTest_SerializeDeserialize_Test8TestBodyEv
FNDA:1,_ZN38StrArrayTest_SerializeDeserialize_TestC2Ev
FNDA:1,_ZN38StrArrayTest_SerializeDeserialize_TestD0Ev
FNDA:1,_ZN38StrArrayTest_SerializeDeserialize_TestD2Ev
FNDA:1,_ZN34HashTableTest_CreateHashTable_Test8TestBodyEv
FNDA:1,_ZN34HashTableTest_CreateHashTable_TestC2Ev
FNDA:1,_ZN34HashTableTest_CreateHashTable_TestD0Ev
FNDA:1,_ZN34HashTableTest_CreateHashTable_TestD2Ev
FNDA:1,_ZN34HashTableTest_PushExistingKey_Test8TestBodyEv
FNDA:1,_ZN34HashTableTest_PushExistingKey_TestC2Ev
FNDA:1,_ZN34HashTableTest_PushExistingKey_TestD0Ev
FNDA:1,_ZN34HashTableTest_PushExistingKey_TestD2Ev
FNDA:1,_ZN30HashTableTest_PushSuccess_Test8TestBodyEv
FNDA:1,_ZN30HashTableTest_PushSuccess_TestC2Ev
FNDA:1,_ZN30HashTableTest_PushSuccess_TestD0Ev
FNDA:1,_ZN30HashTableTest_PushSuccess_TestD2Ev
FNDA:1,_ZN33HashTableTest_GetKeyNotFound_Test8TestBodyEv
FNDA:1,_ZN33HashTableTest_GetKeyNotFound_TestC2Ev
FNDA:1,_ZN33HashTableTest_GetKeyNotFound_TestD0Ev
FNDA:1,_ZN33HashTableTest_GetKeyNotFound_TestD2Ev
FNDA:1,_ZN30HashTableTest_GetKeyFound_Test8TestBodyEv
FNDA:1,_ZN30HashTableTest_GetKeyFound_TestC2Ev
FNDA:1,_ZN30HashTableTest_GetKeyFound_TestD0Ev
FNDA:1,_ZN30HashTableTest_GetKeyFound_TestD2Ev
FNDA:1,_ZN35HashTableTest_DeleteKeySuccess_Test8TestBodyEv
FNDA:1,_ZN35HashTableTest_DeleteKeySuccess_TestC2Ev
FNDA:1,_ZN35HashTableTest_DeleteKeySuccess_TestD0Ev
FNDA:1,_ZN35HashTableTest_DeleteKeySuccess_TestD2Ev
FNDA:1,_ZN36HashTableTest_DeleteKeyNotFound_Test8TestBodyEv
FNDA:1,_ZN36HashTableTest_DeleteKeyNotFound_TestC2Ev
FNDA:1,_ZN36HashTableTest_DeleteKeyNotFound_TestD0Ev
FNDA:1,_ZN36HashTableTest_DeleteKeyNotFound_TestD2Ev
FNDA:1,_ZN22StrArrayTest_Push_Test8TestBodyEv
FNDA:1,_ZN22StrArrayTest_Push_TestC2Ev
FNDA:1,_ZN22StrArrayTest_Push_TestD0Ev
FNDA:1,_ZN22StrArrayTest_Push_TestD2Ev
FNDA:1,_ZN38HashTableTest_SaveAndLoadFromFile_Test8TestBodyEv
FNDA:1,_ZN38HashTableTest_SaveAndLoadFromFile_TestC2Ev
FNDA:1,_ZN38HashTableTest_SaveAndLoadFromFile_TestD0Ev
FNDA:1,_ZN38HashTableTest_SaveAndLoadFromFile_TestD2Ev
FNDA:1,_ZN42HashTableTest_LargeNumberOfOperations_Test8TestBodyEv
FNDA:1,_ZN42HashTableTest_LargeNumberOfOperations_TestC2Ev
FNDA:1,_ZN42HashTableTest_LargeNumberOfOperations_TestD0Ev
FNDA:1,_ZN42HashTableTest_LargeNumberOfOperations_TestD2Ev
FNDA:1,_ZN35HashTableTest_SaveToBinaryFile_Test8TestBodyEv
FNDA:1,_ZN35HashTableTest_SaveToBinaryFile_TestC2Ev
FNDA:1,_ZN35HashTableTest_SaveToBinaryFile_TestD0Ev
FNDA:1,_ZN35HashTableTest_SaveToBinaryFile_TestD2Ev
FNDA:1,_ZN37HashTableTest_LoadFromBinaryFile_Test8TestBodyEv
FNDA:1,_ZN37HashTableTest_LoadFromBinaryFile_TestC2Ev
FNDA:1,_ZN37HashTableTest_LoadFromBinaryFile_TestD0Ev
FNDA:1,_ZN37HashTableTest_LoadFromBinaryFile_TestD2Ev
FNDA:1,_ZN25ListDTest_CreateList_Test8TestBodyEv
FNDA:1,_ZN25ListDTest_CreateList_TestC2Ev
FNDA:1,_ZN25ListDTest_CreateList_TestD0Ev
FNDA:1,_ZN25ListDTest_CreateList_TestD2Ev
FNDA:1,_ZN23ListDTest_PushHead_Test8TestBodyEv
FNDA:1,_ZN23ListDTest_PushHead_TestC2Ev
FNDA:1,_ZN23ListDTest_PushHead_TestD0Ev
FNDA:1,_ZN23ListDTest_PushHead_TestD2Ev
FNDA:1,_ZN23ListDTest_PushTail_Test8TestBodyEv
FNDA:1,_ZN23ListDTest_PushTail_TestC2Ev
FNDA:1,_ZN23ListDTest_PushTail_TestD0Ev
FNDA:1,_ZN23ListDTest_PushTail_TestD2Ev
FNDA:1,_ZN25ListDTest_DeleteHead_Test8TestBodyEv
FNDA:1,_ZN25ListDTest_DeleteHead_TestC2Ev
FNDA:1,_ZN25ListDTest_DeleteHead_TestD0Ev
FNDA:1,_ZN25ListDTest_DeleteHead_TestD2Ev
FNDA:1,_ZN25ListDTest_DeleteTail_Test8TestBodyEv
FNDA:1,_ZN25ListDTest_DeleteTail_TestC2Ev
FNDA:1,_ZN25ListDTest_DeleteTail_TestD0Ev
FNDA:1,_ZN25ListDTest_DeleteTail_TestD2Ev
FNDA:1,_ZN24StrArrayTest_Resize_Test8TestBodyEv
FNDA:1,_ZN24StrArrayTest_Resize_TestC2Ev
FNDA:1,_ZN24StrArrayTest_Resize_TestD0Ev
FNDA:1,_ZN24StrArrayTest_Resize_TestD2Ev
FNDA:1,_ZN26ListDTest_DeleteValue_Test8TestBodyEv
FNDA:1,_ZN26ListDTest_DeleteValue_TestC2Ev
FNDA:1,_ZN26ListDTest_DeleteValue_TestD0Ev
FNDA:1,_ZN26ListDTest_DeleteValue_TestD2Ev
FNDA:1,_ZN24ListDTest_PrintList_Test8TestBodyEv
FNDA:1,_ZN24ListDTest_PrintList_TestC2Ev
FNDA:1,_ZN24ListDTest_PrintList_TestD0Ev
FNDA:1,_ZN24ListDTest_PrintList_TestD2Ev
FNDA:1,_ZN25ListDTest_SaveToFile_Test8TestBodyEv
FNDA:1,_ZN25ListDTest_SaveToFile_TestC2Ev
FNDA:1,_ZN25ListDTest_SaveToFile_TestD0Ev
FNDA:1,_ZN25ListDTest_SaveToFile_TestD2Ev
FNDA:1,_ZN27ListDTest_LoadFromFile_Test8TestBodyEv
FNDA:1,_ZN27ListDTest_LoadFromFile_TestC2Ev
FNDA:1,_ZN27ListDTest_LoadFromFile_TestD0Ev
FNDA:1,_ZN27ListDTest_LoadFromFile_TestD2Ev
FNDA:1,_ZN31ListDTest_SaveToBinaryFile_Test8TestBodyEv
FNDA:1,_ZN31ListDTest_SaveToBinaryFile_TestC2Ev
FNDA:1,_ZN31ListDTest_SaveToBinaryFile_TestD0Ev
FNDA:1,_ZN31ListDTest_SaveToBinaryFile_TestD2Ev
FNDA:1,_ZN23StrArrayTest_Pushi_Test8TestBodyEv
FNDA:1,_ZN23StrArrayTest_Pushi_TestC2Ev
FNDA:1,_ZN23StrArrayTest_Pushi_TestD0Ev
FNDA:1,_ZN23StrArrayTest_Pushi_TestD2Ev
FNDA:1,_ZN33ListDTest_LoadFromBinaryFile_Test8TestBodyEv
FNDA:1,_ZN33ListDTest_LoadFromBinaryFile_TestC2Ev
FNDA:1,_ZN33ListDTest_LoadFromBinaryFile_TestD0Ev
FNDA:1,_ZN33ListDTest_LoadFromBinaryFile_TestD2Ev
FNDA:1,_ZN25ListSTest_CreateList_Test8TestBodyEv
FNDA:1,_ZN25ListSTest_CreateList_TestC2Ev
FNDA:1,_ZN25ListSTest_CreateList_TestD0Ev
FNDA:1,_ZN25ListSTest_CreateList_TestD2Ev
FNDA:1,_ZN23ListSTest_PushHead_Test8TestBodyEv
FNDA:1,_ZN23ListSTest_PushHead_TestC2Ev
FNDA:1,_ZN23ListSTest_PushHead_TestD0Ev
FNDA:1,_ZN23ListSTest_PushHead_TestD2Ev
FNDA:1,_ZN23ListSTest_PushTail_Test8TestBodyEv
FNDA:1,_ZN23ListSTest_PushTail_TestC2Ev
FNDA:1,_ZN23ListSTest_PushTail_TestD0Ev
FNDA:1,_ZN23ListSTest_PushTail_TestD2Ev
FNDA:1,_ZN25ListSTest_DeleteHead_Test8TestBodyEv
FNDA:1,_ZN25ListSTest_DeleteHead_TestC2Ev
FNDA:1,_ZN25ListSTest_DeleteHead_TestD0Ev
FNDA:1,_ZN25ListSTest_DeleteHead_TestD2Ev
FNDA:1,_ZN25ListSTest_DeleteTail_Test8TestBodyEv
FNDA:1,_ZN25ListSTest_DeleteTail_TestC2Ev
FNDA:1,_ZN25ListSTest_DeleteTail_TestD0Ev
FNDA:1,_ZN25ListSTest_DeleteTail_TestD2Ev
FNDA:1,_ZN30ListSTest_DelvHeadElement_Test8TestBodyEv
FNDA:1,_ZN30ListSTest_DelvHeadElement_TestC2Ev
FNDA:1,_ZN30ListSTest_DelvHeadElement_TestD0Ev
FNDA:1,_ZN30ListSTest_DelvHeadElement_TestD2Ev
FNDA:1,_ZN36ListSTest_DelhSingleElementList_Test8TestBodyEv
FNDA:1,_ZN36ListSTest_DelhSingleElementList_TestC2Ev
FNDA:1,_ZN36ListSTest_DelhSingleElementList_TestD0Ev
FNDA:1,_ZN36ListSTest_DelhSingleElementList_TestD2Ev
FNDA:1,_ZN28ListSTest_DeltEmptyList_Test8TestBodyEv
FNDA:1,_ZN28ListSTest_DeltEmptyList_TestC2Ev
FNDA:1,_ZN28ListSTest_DeltEmptyList_TestD0Ev
FNDA:1,_ZN28ListSTest_DeltEmptyList_TestD2Ev
FNDA:1,_ZN34ListSTest_DelvElementNotFound_Test8TestBodyEv
FNDA:1,_ZN34ListSTest_DelvElementNotFound_TestC2Ev
FNDA:1,_ZN34ListSTest_DelvElementNotFound_TestD0Ev
FNDA:1,_ZN34ListSTest_DelvElementNotFound_TestD2Ev
FNDA:1,_ZN25ListSTest_SaveToFile_Test8TestBodyEv
FNDA:1,_ZN25ListSTest_SaveToFile_TestC2Ev
FNDA:1,_ZN25ListSTest_SaveToFile_TestD0Ev
FNDA:1,_ZN25ListSTest_SaveToFile_TestD2Ev
FNDA:1,_ZN43ListSTest_SerializationDeserialization_Test8TestBodyEv
FNDA:1,_ZN43ListSTest_SerializationDeserialization_TestC2Ev
FNDA:1,_ZN43ListSTest_SerializationDeserialization_TestD0Ev
FNDA:1,_ZN43ListSTest_SerializationDeserialization_TestD2Ev
FNDA:1,_ZN34StrArrayTest_PushiOutOfBounds_Test8TestBodyEv
FNDA:1,_ZN34StrArrayTest_PushiOutOfBounds_TestC2Ev
FNDA:1,_ZN34StrArrayTest_PushiOutOfBounds_TestD0Ev
FNDA:1,_ZN34StrArrayTest_PushiOutOfBounds_TestD2Ev
FNDA:1,_ZN26QueueTest_CreateQueue_Test8TestBodyEv
FNDA:1,_ZN26QueueTest_CreateQueue_TestC2Ev
FNDA:1,_ZN26QueueTest_CreateQueue_TestD0Ev
FNDA:1,_ZN26QueueTest_CreateQueue_TestD2Ev
FNDA:1,_ZN19QueueTest_Push_Test8TestBodyEv
FNDA:1,_ZN19QueueTest_Push_TestC2Ev
FNDA:1,_ZN19QueueTest_Push_TestD0Ev
FNDA:1,_ZN19QueueTest_Push_TestD2Ev
FNDA:1,_ZN21QueueTest_Delete_Test8TestBodyEv
FNDA:1,_ZN21QueueTest_Delete_TestC2Ev
FNDA:1,_ZN21QueueTest_Delete_TestD0Ev
FNDA:1,_ZN21QueueTest_Delete_TestD2Ev
FNDA:1,_ZN25QueueTest_SaveToFile_Test8TestBodyEv
FNDA:1,_ZN25QueueTest_SaveToFile_TestC2Ev
FNDA:1,_ZN25QueueTest_SaveToFile_TestD0Ev
FNDA:1,_ZN25QueueTest_SaveToFile_TestD2Ev
FNDA:1,_ZN43QueueTest_SerializationDeserialization_Test8TestBodyEv
FNDA:1,_ZN43QueueTest_SerializationDeserialization_TestC2Ev
FNDA:1,_ZN43QueueTest_SerializationDeserialization_TestD0Ev
FNDA:1,_ZN43QueueTest_SerializationDeserialization_TestD2Ev
FNDA:1,_ZN26StackTest_CreateStack_Test8TestBodyEv
FNDA:1,_ZN26StackTest_CreateStack_TestC2Ev
FNDA:1,_ZN26StackTest_CreateStack_TestD0Ev
FNDA:1,_ZN26StackTest_CreateStack_TestD2Ev
FNDA:1,_ZN19StackTest_Push_Test8TestBodyEv
FNDA:1,_ZN19StackTest_Push_TestC2Ev
FNDA:1,_ZN19StackTest_Push_TestD0Ev
FNDA:1,_ZN19StackTest_Push_TestD2Ev
FNDA:1,_ZN21StackTest_Delete_Test8TestBodyEv
FNDA:1,_ZN21StackTest_Delete_TestC2Ev
FNDA:1,_ZN21StackTest_Delete_TestD0Ev
FNDA:1,_ZN21StackTest_Delete_TestD2Ev
FNDA:1,_ZN25StackTest_SaveToFile_Test8TestBodyEv
FNDA:1,_ZN25StackTest_SaveToFile_TestC2Ev
FNDA:1,_ZN25StackTest_SaveToFile_TestD0Ev
FNDA:1,_ZN25StackTest_SaveToFile_TestD2Ev
FNDA:1,_ZN43StackTest_SerializationDeserialization_Test8TestBodyEv
FNDA:1,_ZN43StackTest_SerializationDeserialization_TestC2Ev
FNDA:1,_ZN43StackTest_SerializationDeserialization_TestD0Ev
FNDA:1,_ZN43StackTest_SerializationDeserialization_TestD2Ev
FNDA:1,_ZN32AVLTreeTest_InsertAndSearch_Test8TestBodyEv
FNDA:1,_ZN32AVLTreeTest_InsertAndSearch_TestC2Ev
FNDA:1,_ZN32AVLTreeTest_InsertAndSearch_TestD0Ev
FNDA:1,_ZN32AVLTreeTest_InsertAndSearch_TestD2Ev
FNDA:1,_ZN23AVLTreeTest_Remove_Test8TestBodyEv
FNDA:1,_ZN23AVLTreeTest_Remove_TestC2Ev
FNDA:1,_ZN23AVLTreeTest_Remove_TestD0Ev
FNDA:1,_ZN23AVLTreeTest_Remove_TestD2Ev
FNDA:1,_ZN21StrArrayTest_Get_Test8TestBodyEv
FNDA:1,_ZN21StrArrayTest_Get_TestC2Ev
FNDA:1,_ZN21StrArrayTest_Get_TestD0Ev
FNDA:1,_ZN21StrArrayTest_Get_TestD2Ev
FNDA:1,_ZN37AVLTreeTest_SerializeDeserialize_Test8TestBodyEv
FNDA:1,_ZN37AVLTreeTest_SerializeDeserialize_TestC2Ev
FNDA:1,_ZN37AVLTreeTest_SerializeDeserialize_TestD0Ev
FNDA:1,_ZN37AVLTreeTest_SerializeDeserialize_TestD2Ev
FNDA:1,_ZN26AVLTreeTest_EmptyTree_Test8TestBodyEv
FNDA:1,_ZN26AVLTreeTest_EmptyTree_TestC2Ev
FNDA:1,_ZN26AVLTreeTest_EmptyTree_TestD0Ev
FNDA:1,_ZN26AVLTreeTest_EmptyTree_TestD2Ev
FNDA:1,_ZN33AVLTreeTest_InsertDuplicates_Test8TestBodyEv
FNDA:1,_ZN33AVLTreeTest_InsertDuplicates_TestC2Ev
FNDA:1,_ZN33AVLTreeTest_InsertDuplicates_TestD0Ev
FNDA:1,_ZN33AVLTreeTest_InsertDuplicates_TestD2Ev
FNDA:1,_ZN34AVLTreeTest_RemoveNonExistent_Test8TestBodyEv
FNDA:1,_ZN34AVLTreeTest_RemoveNonExistent_TestC2Ev
FNDA:1,_ZN34AVLTreeTest_RemoveNonExistent_TestD0Ev
FNDA:1,_ZN34AVLTreeTest_RemoveNonExistent_TestD2Ev
FNDA:1,_ZN46AVLTreeTest_SerializeDeserializeEmptyTree_Test8TestBodyEv
FNDA:1,_ZN46AVLTreeTest_SerializeDeserializeEmptyTree_TestC2Ev
FNDA:1,_ZN46AVLTreeTest_SerializeDeserializeEmptyTree_TestD0Ev
FNDA:1,_ZN46AVLTreeTest_SerializeDeserializeEmptyTree_TestD2Ev
FNDA:1,_ZN54AVLTreeTest_SerializeDeserializeSingleElementTree_Test8TestBodyEv
FNDA:1,_ZN54AVLTreeTest_SerializeDeserializeSingleElementTree_TestC2Ev
FNDA:1,_ZN54AVLTreeTest_SerializeDeserializeSingleElementTree_TestD0Ev
FNDA:1,_ZN54AVLTreeTest_SerializeDeserializeSingleElementTree_TestD2Ev
FNDA:1,_ZN33AVLTreeTest_HeightAndBalance_Test8TestBodyEv
FNDA:1,_ZN33AVLTreeTest_HeightAndBalance_TestC2Ev
FNDA:1,_ZN33AVLTreeTest_HeightAndBalance_TestD0Ev
FNDA:1,_ZN33AVLTreeTest_HeightAndBalance_TestD2Ev
FNDA:1,_ZN29AVLTreeTest_MinValueNode_Test8TestBodyEv
FNDA:1,_ZN29AVLTreeTest_MinValueNode_TestC2Ev
FNDA:1,_ZN29AVLTreeTest_MinValueNode_TestD0Ev
FNDA:1,_ZN29AVLTreeTest_MinValueNode_TestD2Ev
FNDA:1,_ZN26AVLTreeTest_PrintTree_Test8TestBodyEv
FNDA:1,_ZN26AVLTreeTest_PrintTree_TestC2Ev
FNDA:1,_ZN26AVLTreeTest_PrintTree_TestD0Ev
FNDA:1,_ZN26AVLTreeTest_PrintTree_TestD2Ev
FNDA:1,_ZN25StrArrayTest_Replace_Test8TestBodyEv
FNDA:1,_ZN25StrArrayTest_Replace_TestC2Ev
FNDA:1,_ZN25StrArrayTest_Replace_TestD0Ev
FNDA:1,_ZN25StrArrayTest_Replace_TestD2Ev
FNDA:1,_ZN25AVLTreeTest_FreeTree_Test8TestBodyEv
FNDA:1,_ZN25AVLTreeTest_FreeTree_TestC2Ev
FNDA:1,_ZN25AVLTreeTest_FreeTree_TestD0Ev
FNDA:1,_ZN25AVLTreeTest_FreeTree_TestD2Ev
FNDA:1,_ZN28AVLTreeTest_WriteToFile_Test8TestBodyEv
FNDA:1,_ZN28AVLTreeTest_WriteToFile_TestC2Ev
FNDA:1,_ZN28AVLTreeTest_WriteToFile_TestD0Ev
FNDA:1,_ZN28AVLTreeTest_WriteToFile_TestD2Ev
FNDA:1,_ZN26AVLTreeTest_ClearTree_Test8TestBodyEv
FNDA:1,_ZN26AVLTreeTest_ClearTree_TestC2Ev
FNDA:1,_ZN26AVLTreeTest_ClearTree_TestD0Ev
FNDA:1,_ZN26AVLTreeTest_ClearTree_TestD2Ev
FNDA:1,_ZN44AVLTreeTest_InsertRequiresRightRotation_Test8TestBodyEv
FNDA:1,_ZN44AVLTreeTest_InsertRequiresRightRotation_TestC2Ev
FNDA:1,_ZN44AVLTreeTest_InsertRequiresRightRotation_TestD0Ev
FNDA:1,_ZN44AVLTreeTest_InsertRequiresRightRotation_TestD2Ev
FNDA:1,_ZN48AVLTreeTest_InsertRequiresLeftRightRotation_Test8TestBodyEv
FNDA:1,_ZN48AVLTreeTest_InsertRequiresLeftRightRotation_TestC2Ev
FNDA:1,_ZN48AVLTreeTest_InsertRequiresLeftRightRotation_TestD0Ev
FNDA:1,_ZN48AVLTreeTest_InsertRequiresLeftRightRotation_TestD2Ev
FNDA:1,_ZN48AVLTreeTest_InsertRequiresRightLeftRotation_Test8TestBodyEv
FNDA:1,_ZN48AVLTreeTest_InsertRequiresRightLeftRotation_TestC2Ev
FNDA:1,_ZN48AVLTreeTest_InsertRequiresRightLeftRotation_TestD0Ev
FNDA:1,_ZN48AVLTreeTest_InsertRequiresRightLeftRotation_TestD2Ev
FNF:281
FNH:281
DA:13,4
DA:14,1
DA:15,1
DA:16,1
DA:17,1
DA:18,1
DA:21,4
DA:22,1
DA:23,1
DA:24,1
DA:25,1
DA:26,1
DA:27,2
DA:28,1
DA:29,1
DA:30,1
DA:31,1
DA:32,1
DA:35,4
DA:36,1
DA:37,2
DA:38,2
DA:39,1
DA:40,1
DA:41,1
DA:42,1
DA:45,4
DA:46,1
DA:47,2
DA:48,2
DA:49,1
DA:50,1
DA:51,2
DA:52,1
DA:53,1
DA:54,1
DA:55,1
DA:56,1
DA:57,1
DA:58,1
DA:61,4
DA:62,1
DA:63,2
DA:64,1
DA:65,1
DA:66,1
DA:67,1
DA:68,1
DA:69,1
DA:70,2
DA:71,1
DA:72,1
DA:73,1
DA:74,1
DA:75,1
DA:78,4
DA:79,1
DA:80,2
DA:81,1
DA:82,1
DA:83,1
DA:84,1
DA:85,1
DA:86,1
DA:87,1
DA:88,1
DA:91,4
DA:92,1
DA:93,2
DA:94,2
DA:95,1
DA:96,1
DA:97,1
DA:98,1
DA:99,1
DA:102,4
DA:103,1
DA:104,2
DA:105,2
DA:106,1
DA:107,1
DA:108,1
DA:109,2
DA:110,1
DA:111,1
DA:112,1
DA:113,1
DA:114,1
DA:117,4
DA:118,1
DA:119,2
DA:120,2
DA:121,2
DA:122,1
DA:123,1
DA:124,1
DA:125,1
DA:126,1
DA:127,1
DA:128,1
DA:129,1
DA:132,4
DA:133,1
DA:134,2
DA:135,2
DA:136,2
DA:137,2
DA:139,1
DA:141,1
DA:142,1
DA:144,1
DA:145,1
DA:147,5
DA:148,4
DA:149,4
DA:150,4
DA:151,4
DA:152,4
DA:153,4
DA:154,1
DA:159,4
DA:160,1
DA:161,1
DA:162,1
DA:165,4
DA:166,1
DA:167,3
DA:168,1
DA:169,3
DA:170,1
DA:171,1
DA:172,1
DA:175,4
DA:176,1
DA:177,3
DA:178,1
DA:179,2
DA:180,1
DA:181,1
DA:184,4
DA:185,1
DA:186,1
DA:187,2
DA:188,1
DA:191,4
DA:192,1
DA:193,3
DA:194,1
DA:195,2
DA:196,1
DA:197,1
DA:200,4
DA:201,1
DA:202,4
DA:203,2
DA:204,2
DA:205,2
DA:206,1
DA:209,4
DA:210,1
DA:211,3
DA:212,1
DA:215,4
DA:216,1
DA:217,4
DA:218,4
DA:219,1
DA:221,1
DA:222,1
DA:224,1
DA:225,2
DA:226,1
DA:227,2
DA:228,1
DA:229,1
DA:230,1
DA:233,4
DA:234,1
DA:235,1001
DA:236,1000
DA:238,1001
DA:239,1000
DA:240,1000
DA:241,1000
DA:242,1000
DA:243,1001
DA:244,1000
DA:246,1001
DA:247,1000
DA:248,1000
DA:249,1000
DA:250,1
DA:253,4
DA:254,1
DA:255,4
DA:256,1
DA:257,1
DA:259,1
DA:260,1
DA:263,1
DA:266,1
DA:267,1
DA:268,1
DA:269,1
DA:271,1
DA:272,1
DA:273,1
DA:274,1
DA:276,1
DA:277,1
DA:280,4
DA:281,1
DA:282,4
DA:283,1
DA:284,1
DA:286,1
DA:287,1
DA:289,1
DA:290,2
DA:291,1
DA:292,1
DA:293,1
DA:298,4
DA:299,1
DA:300,1
DA:301,1
DA:302,1
DA:305,4
DA:306,1
DA:307,1
DA:308,1
DA:309,1
DA:311,1
DA:312,1
DA:313,1
DA:314,1
DA:315,1
DA:318,4
DA:319,1
DA:320,1
DA:321,1
DA:322,1
DA:324,1
DA:325,1
DA:326,1
DA:327,1
DA:328,1
DA:331,4
DA:332,1
DA:333,1
DA:334,1
DA:335,1
DA:336,1
DA:338,2
DA:339,1
DA:340,1
DA:341,1
DA:342,1
DA:343,1
DA:346,4
DA:347,1
DA:348,1
DA:349,1
DA:350,1
DA:351,1
DA:353,2
DA:354,1
DA:355,1
DA:356,1
DA:357,1
DA:358,1
DA:361,4
DA:362,1
DA:363,2
DA:364,2
DA:365,2
DA:366,1
DA:367,1
DA:368,1
DA:369,1
DA:371,1
DA:372,1
DA:373,2
DA:374,1
DA:375,1
DA:376,1
DA:377,1
DA:378,1
DA:381,4
DA:382,1
DA:383,2
DA:384,2
DA:385,1
DA:387,1
DA:388,1
DA:389,1
DA:390,1
DA:391,1
DA:394,4
DA:395,1
DA:396,2
DA:397,2
DA:398,2
DA:400,1
DA:401,1
DA:403,1
DA:404,1
DA:405,1
DA:406,1
DA:407,1
DA:408,1
DA:411,4
DA:413,1
DA:414,1
DA:415,1
DA:416,1
DA:419,1
DA:420,1
DA:422,1
DA:424,1
DA:427,1
DA:428,1
DA:429,1
DA:431,1
DA:432,1
DA:433,1
DA:435,1
DA:436,1
DA:437,1
DA:439,1
DA:440,1
DA:441,1
DA:444,4
DA:445,1
DA:446,2
DA:447,1
DA:448,1
DA:450,1
DA:451,1
DA:454,1
DA:457,1
DA:458,1
DA:459,1
DA:460,1
DA:462,1
DA:463,1
DA:466,4
DA:467,1
DA:468,2
DA:469,1
DA:470,1
DA:472,1
DA:473,1
DA:475,1
DA:476,1
DA:477,1
DA:479,1
DA:481,1
DA:482,1
DA:487,4
DA:488,1
DA:489,1
DA:490,1
DA:491,1
DA:494,4
DA:495,1
DA:496,1
DA:497,1
DA:498,1
DA:500,1
DA:501,1
DA:502,1
DA:503,1
DA:504,1
DA:507,4
DA:508,1
DA:509,1
DA:510,1
DA:511,1
DA:513,1
DA:514,1
DA:515,1
DA:516,1
DA:517,1
DA:520,4
DA:521,1
DA:522,1
DA:523,1
DA:524,1
DA:525,1
DA:527,2
DA:528,1
DA:529,1
DA:530,1
DA:531,1
DA:532,1
DA:535,4
DA:536,1
DA:537,1
DA:538,1
DA:539,1
DA:540,1
DA:542,2
DA:543,1
DA:544,1
DA:545,1
DA:546,1
DA:547,1
DA:550,4
DA:551,1
DA:552,2
DA:553,2
DA:554,2
DA:555,1
DA:556,1
DA:559,4
DA:560,1
DA:561,1
DA:562,1
DA:563,1
DA:564,1
DA:565,1
DA:568,4
DA:569,1
DA:570,1
DA:571,1
DA:574,4
DA:575,1
DA:576,2
DA:577,2
DA:578,2
DA:579,1
DA:582,4
DA:583,1
DA:584,2
DA:585,2
DA:586,2
DA:588,1
DA:589,1
DA:591,1
DA:592,1
DA:593,1
DA:594,1
DA:595,1
DA:597,1
DA:598,1
DA:601,4
DA:602,1
DA:603,2
DA:604,1
DA:606,1
DA:607,1
DA:609,1
DA:610,1
DA:611,1
DA:612,1
DA:614,1
DA:615,1
DA:620,4
DA:621,1
DA:622,1
DA:623,1
DA:624,1
DA:627,4
DA:628,1
DA:629,1
DA:630,1
DA:631,1
DA:633,1
DA:634,1
DA:635,1
DA:636,1
DA:637,1
DA:640,4
DA:641,1
DA:642,1
DA:643,1
DA:644,1
DA:645,1
DA:647,2
DA:648,1
DA:649,1
DA:650,1
DA:651,1
DA:652,1
DA:655,4
DA:656,1
DA:657,2
DA:658,2
DA:659,2
DA:661,1
DA:662,1
DA:664,1
DA:665,1
DA:666,1
DA:667,1
DA:668,1
DA:670,1
DA:671,1
DA:674,4
DA:675,1
DA:676,2
DA:677,1
DA:679,1
DA:680,1
DA:682,1
DA:683,1
DA:684,1
DA:685,1
DA:687,1
DA:688,1
DA:693,4
DA:694,1
DA:695,1
DA:696,1
DA:699,4
DA:700,1
DA:701,1
DA:702,1
DA:704,1
DA:705,1
DA:706,1
DA:707,1
DA:710,4
DA:711,1
DA:712,1
DA:713,1
DA:714,1
DA:716,2
DA:717,1
DA:718,1
DA:719,1
DA:720,1
DA:723,4
DA:724,1
DA:725,2
DA:726,2
DA:727,2
DA:729,1
DA:730,1
DA:732,1
DA:733,1
DA:734,1
DA:735,1
DA:736,1
DA:738,1
DA:739,1
DA:742,4
DA:743,1
DA:744,2
DA:745,1
DA:747,1
DA:748,1
DA:750,1
DA:751,1
DA:753,1
DA:754,1
DA:759,4
DA:760,1
DA:761,1
DA:762,1
DA:763,1
DA:765,1
DA:766,1
DA:767,1
DA:768,1
DA:769,1
DA:772,4
DA:773,1
DA:774,1
DA:775,1
DA:776,1
DA:778,1
DA:779,1
DA:780,1
DA:781,1
DA:783,1
DA:784,1
DA:785,1
DA:787,1
DA:788,1
DA:789,1
DA:792,4
DA:793,1
DA:794,1
DA:795,1
DA:796,1
DA:798,1
DA:799,1
DA:801,1
DA:802,1
DA:804,1
DA:805,1
DA:806,1
DA:807,1
DA:808,1
DA:811,4
DA:812,1
DA:813,1
DA:814,1
DA:815,1
DA:816,1
DA:819,4
DA:820,1
DA:821,1
DA:822,1
DA:823,1
DA:825,1
DA:826,1
DA:827,1
DA:830,4
DA:831,1
DA:832,1
DA:833,1
DA:835,1
DA:836,1
DA:837,1
DA:838,1
DA:839,1
DA:842,4
DA:843,1
DA:844,1
DA:845,1
DA:847,1
DA:848,1
DA:850,1
DA:851,1
DA:854,4
DA:855,1
DA:856,1
DA:857,1
DA:858,1
DA:860,1
DA:861,1
DA:863,1
DA:864,1
DA:865,1
DA:868,4
DA:869,1
DA:870,1
DA:871,1
DA:872,1
DA:875,1
DA:876,1
DA:877,1
DA:880,4
DA:881,1
DA:882,1
DA:883,1
DA:884,1
DA:885,1
DA:886,1
DA:889,1
DA:890,1
DA:893,4
DA:894,1
DA:895,1
DA:896,1
DA:897,1
DA:900,1
DA:901,1
DA:902,1
DA:903,1
DA:906,1
DA:907,1
DA:908,1
DA:909,1
DA:910,1
DA:913,4
DA:914,1
DA:915,1
DA:916,1
DA:917,1
DA:919,1
DA:922,1
DA:923,1
DA:924,1
DA:925,1
DA:928,4
DA:929,1
DA:930,1
DA:931,1
DA:932,1
DA:934,1
DA:935,1
DA:938,1
DA:939,1
DA:940,1
DA:941,1
DA:943,1
DA:944,1
DA:945,1
DA:946,1
DA:949,4
DA:950,1
DA:951,1
DA:952,1
DA:953,1
DA:955,1
DA:958,1
DA:959,1
DA:960,1
DA:961,1
DA:964,4
DA:965,1
DA:966,1
DA:967,1
DA:968,1
DA:970,1
DA:971,1
DA:972,1
DA:973,1
DA:974,1
DA:975,1
DA:978,4
DA:979,1
DA:980,1
DA:981,1
DA:982,1
DA:984,1
DA:985,1
DA:986,1
DA:987,1
DA:988,1
DA:989,1
DA:992,4
DA:993,1
DA:994,1
DA:995,1
DA:996,1
DA:998,1
DA:999,1
DA:1000,1
DA:1001,1
DA:1002,1
DA:1003,1
DA:1005,1
DA:1006,1
DA:1007,1
LF:739
LH:739
end_of_record
TN:
SF:/usr/include/c++/13/bits/allocator.h
FNF:0
FNH:0
DA:163,6163
DA:184,6163
LF:2
LH:2
end_of_record
TN:
SF:/usr/include/c++/13/bits/basic_string.h
FN:3674,3676,_ZStplIcSt11char_traitsIcESaIcEENSt7__cxx1112basic_stringIT_T0_T1_EEPKS5_OS8_
FN:3710,3716,_ZSteqIcSt11char_traitsIcESaIcEEbRKNSt7__cxx1112basic_stringIT_T0_T1_EESA_
FN:3727,3732,_ZSteqIcSt11char_traitsIcESaIcEEbRKNSt7__cxx1112basic_stringIT_T0_T1_EEPKS5_
FN:3788,3791,_ZStneIcSt11char_traitsIcESaIcEEbRKNSt7__cxx1112basic_stringIT_T0_T1_EESA_
FN:3815,3817,_ZStneIcSt11char_traitsIcESaIcEEbRKNSt7__cxx1112basic_stringIT_T0_T1_EEPKS5_
FN:4162,4173,_ZNSt7__cxx119to_stringEi
FN:641,650,_ZNSt7__cxx1112basic_stringIcSt11char_traitsIcESaIcEEC2IS3_EEPKcRKS3_
FN:664,666,_ZNSt7__cxx1112basic_stringIcSt11char_traitsIcESaIcEEC2IS3_EEmcRKS3_
FN:795,796,_ZNSt7__cxx1112basic_stringIcSt11char_traitsIcESaIcEEC2ISt17basic_string_viewIcS2_EvEERKT_RKS3_
FNDA:6000,_ZStplIcSt11char_traitsIcESaIcEENSt7__cxx1112basic_stringIT_T0_T1_EEPKS5_OS8_
FNDA:16853,_ZSteqIcSt11char_traitsIcESaIcEEbRKNSt7__cxx1112basic_stringIT_T0_T1_EESA_
FNDA:89,_ZSteqIcSt11char_traitsIcESaIcEEbRKNSt7__cxx1112basic_stringIT_T0_T1_EEPKS5_
FNDA:5,_ZStneIcSt11char_traitsIcESaIcEEbRKNSt7__cxx1112basic_stringIT_T0_T1_EESA_
FNDA:1,_ZStneIcSt11char_traitsIcESaIcEEbRKNSt7__cxx1112basic_stringIT_T0_T1_EEPKS5_
FNDA:6000,_ZNSt7__cxx119to_stringEi
FNDA:222,_ZNSt7__cxx1112basic_stringIcSt11char_traitsIcESaIcEEC2IS3_EEPKcRKS3_
FNDA:6006,_ZNSt7__cxx1112basic_stringIcSt11char_traitsIcESaIcEEC2IS3_EEmcRKS3_
FNDA:5,_ZNSt7__cxx1112basic_stringIcSt11char_traitsIcESaIcEEC2ISt17basic_string_viewIcS2_EvEERKT_RKS3_
FNF:9
FNH:9
DA:355,213
DA:641,222
DA:642,222
DA:645,222
DA:646,0
DA:648,222
DA:649,222
DA:650,222
DA:664,6006
DA:665,6006
DA:666,6006
DA:795,5
DA:796,5
DA:3674,6000
DA:3676,6000
DA:3710,16853
DA:3714,16853
DA:3715,16853
DA:3727,89
DA:3730,89
DA:3731,89
DA:3788,5
DA:3791,5
DA:3815,1
DA:3817,1
DA:4162,6000
DA:4167,6000
DA:4168,6000
DA:4169,6000
DA:4170,6000
DA:4171,6000
DA:4172,6000
LF:32
LH:31
end_of_record
TN:
SF:/usr/include/c++/13/bits/basic_string.tcc
FN:221,252,_ZNSt7__cxx1112basic_stringIcSt11char_traitsIcESaIcEE12_M_constructIPKcEEvT_S8_St20forward_iterator_tag
FN:221,252,_ZNSt7__cxx1112basic_stringIcSt11char_traitsIcESaIcEE12_M_constructIPcEEvT_S7_St20forward_iterator_tag
FN:239,239,_ZZNSt7__cxx1112basic_stringIcSt11char_traitsIcESaIcEE12_M_constructIPKcEEvT_S8_St20forward_iterator_tagEN6_GuardC2EPS4_
FN:239,239,_ZZNSt7__cxx1112basic_stringIcSt11char_traitsIcESaIcEE12_M_constructIPcEEvT_S7_St20forward_iterator_tagEN6_GuardC2EPS4_
FN:242,242,_ZZNSt7__cxx1112basic_stringIcSt11char_traitsIcESaIcEE12_M_constructIPKcEEvT_S8_St20forward_iterator_tagEN6_GuardD2Ev
FN:242,242,_ZZNSt7__cxx1112basic_stringIcSt11char_traitsIcESaIcEE12_M_constructIPcEEvT_S7_St20forward_iterator_tagEN6_GuardD2Ev
FNDA:226,_ZNSt7__cxx1112basic_stringIcSt11char_traitsIcESaIcEE12_M_constructIPKcEEvT_S8_St20forward_iterator_tag
FNDA:0,_ZNSt7__cxx1112basic_stringIcSt11char_traitsIcESaIcEE12_M_constructIPcEEvT_S7_St20forward_iterator_tag
FNDA:226,_ZZNSt7__cxx1112basic_stringIcSt11char_traitsIcESaIcEE12_M_constructIPKcEEvT_S8_St20forward_iterator_tagEN6_GuardC2EPS4_
FNDA:0,_ZZNSt7__cxx1112basic_stringIcSt11char_traitsIcESaIcEE12_M_constructIPcEEvT_S7_St20forward_iterator_tagEN6_GuardC2EPS4_
FNDA:226,_ZZNSt7__cxx1112basic_stringIcSt11char_traitsIcESaIcEE12_M_constructIPKcEEvT_S8_St20forward_iterator_tagEN6_GuardD2Ev
FNDA:0,_ZZNSt7__cxx1112basic_stringIcSt11char_traitsIcESaIcEE12_M_constructIPcEEvT_S7_St20forward_iterator_tagEN6_GuardD2Ev
FNF:6
FNH:3
DA:221,226
DA:225,226
DA:227,226
DA:229,13
DA:230,13
DA:239,226
DA:242,226
DA:245,226
DA:247,226
DA:249,226
DA:251,226
DA:252,226
LF:12
LH:12
end_of_record
TN:
SF:/usr/include/c++/13/bits/char_traits.h
FN:136,137,_ZN9__gnu_cxx11char_traitsIcE2eqERKcS3_
FN:199,206,_ZN9__gnu_cxx11char_traitsIcE6lengthEPKc
FN:366,371,_ZNSt11char_traitsIcE2ltERKcS2_
FN:374,390,_ZNSt11char_traitsIcE7compareEPKcS2_m
FN:393,400,_ZNSt11char_traitsIcE6lengthEPKc
FN:427,436,_ZNSt11char_traitsIcE4copyEPcPKcm
FNDA:0,_ZN9__gnu_cxx11char_traitsIcE2eqERKcS3_
FNDA:0,_ZN9__gnu_cxx11char_traitsIcE6lengthEPKc
FNDA:0,_ZNSt11char_traitsIcE2ltERKcS2_
FNDA:14325,_ZNSt11char_traitsIcE7compareEPKcS2_m
FNDA:314,_ZNSt11char_traitsIcE6lengthEPKc
FNDA:0,_ZNSt11char_traitsIcE4copyEPcPKcm
FNF:6
FNH:2
DA:136,0
DA:137,0
DA:199,0
DA:202,0
DA:203,0
DA:204,0
DA:205,0
DA:366,0
DA:369,0
DA:370,0
DA:374,14325
DA:376,14325
DA:377,0
DA:379,14325
DA:381,0
DA:382,0
DA:383,0
DA:384,0
DA:385,0
DA:386,0
DA:389,14325
DA:393,314
DA:396,314
DA:397,0
DA:399,314
DA:427,0
DA:429,0
DA:430,0
DA:435,0
LF:29
LH:7
end_of_record
TN:
SF:/usr/include/c++/13/bits/charconv.h
FN:55,74,_ZNSt8__detail14__to_chars_lenIjEEjT_i
FN:81,110,_ZNSt8__detail18__to_chars_10_implIjEEvPcjT_
FNDA:6000,_ZNSt8__detail14__to_chars_lenIjEEjT_i
FNDA:6000,_ZNSt8__detail18__to_chars_10_implIjEEvPcjT_
FNF:2
FNH:2
DA:55,6000
DA:61,6000
DA:62,6000
DA:63,6000
DA:64,6000
DA:67,6000
DA:68,5940
DA:69,5400
DA:70,0
DA:71,0
DA:72,0
DA:81,6000
DA:87,6000
DA:93,6000
DA:94,11400
DA:96,5400
DA:97,5400
DA:98,5400
DA:99,5400
DA:100,5400
DA:102,6000
DA:104,540
DA:105,540
DA:106,540
DA:109,5460
DA:110,6000
LF:26
LH:23
end_of_record
TN:
SF:/usr/include/c++/13/bits/fs_path.h
FN:183,185,_ZNSt10filesystem7__cxx118__detail17__effective_rangeIcSt11char_traitsIcESaIcEEESt17basic_string_viewIT_S3_IS7_EERKNSt7__cxx1112basic_stringIS7_T0_T1_EE
FN:196,214,_ZNSt10filesystem7__cxx118__detail17__effective_rangeIA23_cEEDaRKT_
FN:330,332,_ZNSt10filesystem7__cxx114pathC2IA23_cS1_EERKT_NS1_6formatE
FN:330,332,_ZNSt10filesystem7__cxx114pathC2INSt7__cxx1112basic_stringIcSt11char_traitsIcESaIcEEES1_EERKT_NS1_6formatE
FN:355,355,_ZNSt10filesystem7__cxx114pathD2Ev
FN:618,633,_ZNSt10filesystem7__cxx114path10_S_convertISt17basic_string_viewIcSt11char_traitsIcEEEEDaT_
FN:689,689,_ZNSt10filesystem7__cxx114path5_ListD2Ev
FNDA:2,_ZNSt10filesystem7__cxx118__detail17__effective_rangeIcSt11char_traitsIcESaIcEEESt17basic_string_viewIT_S3_IS7_EERKNSt7__cxx1112basic_stringIS7_T0_T1_EE
FNDA:3,_ZNSt10filesystem7__cxx118__detail17__effective_rangeIA23_cEEDaRKT_
FNDA:3,_ZNSt10filesystem7__cxx114pathC2IA23_cS1_EERKT_NS1_6formatE
FNDA:2,_ZNSt10filesystem7__cxx114pathC2INSt7__cxx1112basic_stringIcSt11char_traitsIcESaIcEEES1_EERKT_NS1_6formatE
FNDA:5,_ZNSt10filesystem7__cxx114pathD2Ev
FNDA:5,_ZNSt10filesystem7__cxx114path10_S_convertISt17basic_string_viewIcSt11char_traitsIcEEEEDaT_
FNDA:5,_ZNSt10filesystem7__cxx114path5_ListD2Ev
FNF:7
FNH:7
DA:183,2
DA:185,2
DA:196,3
DA:203,3
DA:330,5
DA:331,10
DA:332,5
DA:355,5
DA:618,5
DA:622,5
DA:689,5
LF:11
LH:11
end_of_record
TN:
SF:/usr/include/c++/13/bits/ios_base.h
FN:130,131,_ZStorSt13_Ios_OpenmodeS_
FNDA:1,_ZStorSt13_Ios_OpenmodeS_
FNF:1
FNH:1
DA:130,1
DA:131,1
LF:2
LH:2
end_of_record
TN:
SF:/usr/include/c++/13/bits/move.h
FN:70,71,_ZSt7forwardISt14default_deleteINSt7__cxx1112basic_stringIcSt11char_traitsIcESaIcEEEEEOT_RNSt16remove_referenceIS8_E4typeE
FN:97,98,_ZSt4moveIRNSt7__cxx1112basic_stringIcSt11char_traitsIcESaIcEEEEONSt16remove_referenceIT_E4typeEOS8_
FN:97,98,_ZSt4moveIRPNSt10filesystem7__cxx114path5_List5_ImplEEONSt16remove_referenceIT_E4typeEOS8_
FN:97,98,_ZSt4moveIRPNSt7__cxx1112basic_stringIcSt11char_traitsIcESaIcEEEEONSt16remove_referenceIT_E4typeEOS9_
FN:97,98,_ZSt4moveIRPNSt7__cxx1118basic_stringstreamIcSt11char_traitsIcESaIcEEEEONSt16remove_referenceIT_E4typeEOS9_
FN:97,98,_ZSt4moveIRSaIcEEONSt16remove_referenceIT_E4typeEOS3_
FNDA:0,_ZSt7forwardISt14default_deleteINSt7__cxx1112basic_stringIcSt11char_traitsIcESaIcEEEEEOT_RNSt16remove_referenceIS8_E4typeE
FNDA:6000,_ZSt4moveIRNSt7__cxx1112basic_stringIcSt11char_traitsIcESaIcEEEEONSt16remove_referenceIT_E4typeEOS8_
FNDA:5,_ZSt4moveIRPNSt10filesystem7__cxx114path5_List5_ImplEEONSt16remove_referenceIT_E4typeEOS8_
FNDA:0,_ZSt4moveIRPNSt7__cxx1112basic_stringIcSt11char_traitsIcESaIcEEEEONSt16remove_referenceIT_E4typeEOS9_
FNDA:0,_ZSt4moveIRPNSt7__cxx1118basic_stringstreamIcSt11char_traitsIcESaIcEEEEONSt16remove_referenceIT_E4typeEOS9_
FNDA:0,_ZSt4moveIRSaIcEEONSt16remove_referenceIT_E4typeEOS3_
FNF:6
FNH:2
DA:70,0
DA:71,0
DA:97,6005
DA:98,6005
LF:4
LH:2
end_of_record
TN:
SF:/usr/include/c++/13/bits/new_allocator.h
FN:104,104,_ZNSt15__new_allocatorIcED2Ev
FNDA:6233,_ZNSt15__new_allocatorIcED2Ev
FNF:1
FNH:1
DA:88,6163
DA:104,6233
LF:2
LH:2
end_of_record
TN:
SF:/usr/include/c++/13/bits/stl_algobase.h
FN:257,265,_ZSt3maxIiERKT_S2_S2_
FNDA:72,_ZSt3maxIiERKT_S2_S2_
FNF:1
FNH:1
DA:257,72
DA:262,72
DA:263,30
DA:264,42
LF:4
LH:4
end_of_record
TN:
SF:/usr/include/c++/13/bits/stl_iterator.h
FN:1099,1100,_ZNK9__gnu_cxx17__normal_iteratorIPKcNSt7__cxx1112basic_stringIcSt11char_traitsIcESaIcEEEEdeEv
FN:1109,1113,_ZN9__gnu_cxx17__normal_iteratorIPKcNSt7__cxx1112basic_stringIcSt11char_traitsIcESaIcEEEEppEv
FN:1162,1163,_ZNK9__gnu_cxx17__normal_iteratorIPKcNSt7__cxx1112basic_stringIcSt11char_traitsIcESaIcEEEE4baseEv
FN:1241,1244,_ZN9__gnu_cxxneIPKcNSt7__cxx1112basic_stringIcSt11char_traitsIcESaIcEEEEEbRKNS_17__normal_iteratorIT_T0_EESE_
FNDA:23644,_ZNK9__gnu_cxx17__normal_iteratorIPKcNSt7__cxx1112basic_stringIcSt11char_traitsIcESaIcEEEEdeEv
FNDA:23644,_ZN9__gnu_cxx17__normal_iteratorIPKcNSt7__cxx1112basic_stringIcSt11char_traitsIcESaIcEEEEppEv
FNDA:55330,_ZNK9__gnu_cxx17__normal_iteratorIPKcNSt7__cxx1112basic_stringIcSt11char_traitsIcESaIcEEEE4baseEv
FNDA:27665,_ZN9__gnu_cxxneIPKcNSt7__cxx1112basic_stringIcSt11char_traitsIcESaIcEEEEEbRKNS_17__normal_iteratorIT_T0_EESE_
FNF:4
FNH:4
DA:1099,23644
DA:1100,23644
DA:1109,23644
DA:1111,23644
DA:1112,23644
DA:1162,55330
DA:1163,55330
DA:1241,27665
DA:1244,27665
LF:9
LH:9
end_of_record
TN:
SF:/usr/include/c++/13/bits/stl_iterator_base_funcs.h
FNF:0
FNH:0
DA:106,226
DA:151,452
DA:152,452
LF:3
LH:3
end_of_record
TN:
SF:/usr/include/c++/13/bits/stl_iterator_base_types.h
FNF:0
FNH:0
DA:240,226
LF:1
LH:1
end_of_record
TN:
SF:/usr/include/c++/13/bits/unique_ptr.h
FN:1069,1070,_ZSt11make_uniqueINSt7__cxx1112basic_stringIcSt11char_traitsIcESaIcEEEJEENSt8__detail9_MakeUniqIT_E15__single_objectEDpOT0_
FN:174,174,_ZNSt15__uniq_ptr_implINSt7__cxx1112basic_stringIcSt11char_traitsIcESaIcEEESt14default_deleteIS5_EEC2Ev
FN:176,176,_ZNSt15__uniq_ptr_implINSt7__cxx1112basic_stringIcSt11char_traitsIcESaIcEEESt14default_deleteIS5_EEC2EPS5_
FN:189,194,_ZNSt15__uniq_ptr_implINSt7__cxx1112basic_stringIcSt11char_traitsIcESaIcEEESt14default_deleteIS5_EEaSEOS8_
FN:197,197,_ZNSt15__uniq_ptr_implINSt10filesystem7__cxx114path5_List5_ImplENS3_13_Impl_deleterEE6_M_ptrEv
FN:197,197,_ZNSt15__uniq_ptr_implINSt7__cxx1112basic_stringIcSt11char_traitsIcESaIcEEESt14default_deleteIS5_EE6_M_ptrEv
FN:197,197,_ZNSt15__uniq_ptr_implINSt7__cxx1118basic_stringstreamIcSt11char_traitsIcESaIcEEESt14default_deleteIS5_EE6_M_ptrEv
FN:199,199,_ZNKSt15__uniq_ptr_implINSt7__cxx1112basic_stringIcSt11char_traitsIcESaIcEEESt14default_deleteIS5_EE6_M_ptrEv
FN:199,199,_ZNKSt15__uniq_ptr_implINSt7__cxx1118basic_stringstreamIcSt11char_traitsIcESaIcEEESt14default_deleteIS5_EE6_M_ptrEv
FN:201,201,_ZNSt15__uniq_ptr_implINSt10filesystem7__cxx114path5_List5_ImplENS3_13_Impl_deleterEE10_M_deleterEv
FN:201,201,_ZNSt15__uniq_ptr_implINSt7__cxx1112basic_stringIcSt11char_traitsIcESaIcEEESt14default_deleteIS5_EE10_M_deleterEv
FN:201,201,_ZNSt15__uniq_ptr_implINSt7__cxx1118basic_stringstreamIcSt11char_traitsIcESaIcEEESt14default_deleteIS5_EE10_M_deleterEv
FN:206,212,_ZNSt15__uniq_ptr_implINSt7__cxx1112basic_stringIcSt11char_traitsIcESaIcEEESt14default_deleteIS5_EE5resetEPS5_
FN:215,220,_ZNSt15__uniq_ptr_implINSt7__cxx1112basic_stringIcSt11char_traitsIcESaIcEEESt14default_deleteIS5_EE7releaseEv
FN:243,243,_ZNSt15__uniq_ptr_dataINSt7__cxx1112basic_stringIcSt11char_traitsIcESaIcEEESt14default_deleteIS5_ELb1ELb1EEaSEOS8_
FN:304,306,_ZNSt10unique_ptrINSt7__cxx1112basic_stringIcSt11char_traitsIcESaIcEEESt14default_deleteIS5_EEC2IS7_vEEv
FN:317,319,_ZNSt10unique_ptrINSt7__cxx1112basic_stringIcSt11char_traitsIcESaIcEEESt14default_deleteIS5_EEC2IS7_vEEPS5_
FN:398,406,_ZNSt10unique_ptrINSt10filesystem7__cxx114path5_List5_ImplENS3_13_Impl_deleterEED2Ev
FN:398,406,_ZNSt10unique_ptrINSt7__cxx1112basic_stringIcSt11char_traitsIcESaIcEEESt14default_deleteIS5_EED2Ev
FN:398,406,_ZNSt10unique_ptrINSt7__cxx1118basic_stringstreamIcSt11char_traitsIcESaIcEEESt14default_deleteIS5_EED2Ev
FN:414,414,_ZNSt10unique_ptrINSt7__cxx1112basic_stringIcSt11char_traitsIcESaIcEEESt14default_deleteIS5_EEaSEOS8_
FN:451,455,_ZNKSt10unique_ptrINSt7__cxx1118basic_stringstreamIcSt11char_traitsIcESaIcEEESt14default_deleteIS5_EEdeEv
FN:460,464,_ZNKSt10unique_ptrINSt7__cxx1112basic_stringIcSt11char_traitsIcESaIcEEESt14default_deleteIS5_EEptEv
FN:469,470,_ZNKSt10unique_ptrINSt7__cxx1112basic_stringIcSt11char_traitsIcESaIcEEESt14default_deleteIS5_EE3getEv
FN:469,470,_ZNKSt10unique_ptrINSt7__cxx1118basic_stringstreamIcSt11char_traitsIcESaIcEEESt14default_deleteIS5_EE3getEv
FN:475,476,_ZNSt10unique_ptrINSt10filesystem7__cxx114path5_List5_ImplENS3_13_Impl_deleterEE11get_deleterEv
FN:475,476,_ZNSt10unique_ptrINSt7__cxx1112basic_stringIcSt11char_traitsIcESaIcEEESt14default_deleteIS5_EE11get_deleterEv
FN:475,476,_ZNSt10unique_ptrINSt7__cxx1118basic_stringstreamIcSt11char_traitsIcESaIcEEESt14default_deleteIS5_EE11get_deleterEv
FN:486,487,_ZNKSt10unique_ptrINSt7__cxx1112basic_stringIcSt11char_traitsIcESaIcEEESt14default_deleteIS5_EEcvbEv
FN:837,838,_ZSteqINSt7__cxx1112basic_stringIcSt11char_traitsIcESaIcEEESt14default_deleteIS5_EEbRKSt10unique_ptrIT_T0_EDn
FN:861,862,_ZStneINSt7__cxx1112basic_stringIcSt11char_traitsIcESaIcEEESt14default_deleteIS5_EEbRKSt10unique_ptrIT_T0_EDn
FN:93,100,_ZNKSt14default_deleteINSt7__cxx1112basic_stringIcSt11char_traitsIcESaIcEEEEclEPS5_
FN:93,100,_ZNKSt14default_deleteINSt7__cxx1118basic_stringstreamIcSt11char_traitsIcESaIcEEEEclEPS5_
FNDA:0,_ZSt11make_uniqueINSt7__cxx1112basic_stringIcSt11char_traitsIcESaIcEEEJEENSt8__detail9_MakeUniqIT_E15__single_objectEDpOT0_
FNDA:3077,_ZNSt15__uniq_ptr_implINSt7__cxx1112basic_stringIcSt11char_traitsIcESaIcEEESt14default_deleteIS5_EEC2Ev
FNDA:0,_ZNSt15__uniq_ptr_implINSt7__cxx1112basic_stringIcSt11char_traitsIcESaIcEEESt14default_deleteIS5_EEC2EPS5_
FNDA:0,_ZNSt15__uniq_ptr_implINSt7__cxx1112basic_stringIcSt11char_traitsIcESaIcEEESt14default_deleteIS5_EEaSEOS8_
FNDA:5,_ZNSt15__uniq_ptr_implINSt10filesystem7__cxx114path5_List5_ImplENS3_13_Impl_deleterEE6_M_ptrEv
FNDA:4223,_ZNSt15__uniq_ptr_implINSt7__cxx1112basic_stringIcSt11char_traitsIcESaIcEEESt14default_deleteIS5_EE6_M_ptrEv
FNDA:0,_ZNSt15__uniq_ptr_implINSt7__cxx1118basic_stringstreamIcSt11char_traitsIcESaIcEEESt14default_deleteIS5_EE6_M_ptrEv
FNDA:0,_ZNKSt15__uniq_ptr_implINSt7__cxx1112basic_stringIcSt11char_traitsIcESaIcEEESt14default_deleteIS5_EE6_M_ptrEv
FNDA:0,_ZNKSt15__uniq_ptr_implINSt7__cxx1118basic_stringstreamIcSt11char_traitsIcESaIcEEESt14default_deleteIS5_EE6_M_ptrEv
FNDA:5,_ZNSt15__uniq_ptr_implINSt10filesystem7__cxx114path5_List5_ImplENS3_13_Impl_deleterEE10_M_deleterEv
FNDA:0,_ZNSt15__uniq_ptr_implINSt7__cxx1112basic_stringIcSt11char_traitsIcESaIcEEESt14default_deleteIS5_EE10_M_deleterEv
FNDA:0,_ZNSt15__uniq_ptr_implINSt7__cxx1118basic_stringstreamIcSt11char_traitsIcESaIcEEESt14default_deleteIS5_EE10_M_deleterEv
FNDA:0,_ZNSt15__uniq_ptr_implINSt7__cxx1112basic_stringIcSt11char_traitsIcESaIcEEESt14default_deleteIS5_EE5resetEPS5_
FNDA:0,_ZNSt15__uniq_ptr_implINSt7__cxx1112basic_stringIcSt11char_traitsIcESaIcEEESt14default_deleteIS5_EE7releaseEv
FNDA:0,_ZNSt15__uniq_ptr_dataINSt7__cxx1112basic_stringIcSt11char_traitsIcESaIcEEESt14default_deleteIS5_ELb1ELb1EEaSEOS8_
FNDA:3077,_ZNSt10unique_ptrINSt7__cxx1112basic_stringIcSt11char_traitsIcESaIcEEESt14default_deleteIS5_EEC2IS7_vEEv
FNDA:0,_ZNSt10unique_ptrINSt7__cxx1112basic_stringIcSt11char_traitsIcESaIcEEESt14default_deleteIS5_EEC2IS7_vEEPS5_
FNDA:5,_ZNSt10unique_ptrINSt10filesystem7__cxx114path5_List5_ImplENS3_13_Impl_deleterEED2Ev
FNDA:4223,_ZNSt10unique_ptrINSt7__cxx1112basic_stringIcSt11char_traitsIcESaIcEEESt14default_deleteIS5_EED2Ev
FNDA:0,_ZNSt10unique_ptrINSt7__cxx1118basic_stringstreamIcSt11char_traitsIcESaIcEEESt14default_deleteIS5_EED2Ev
FNDA:0,_ZNSt10unique_ptrINSt7__cxx1112basic_stringIcSt11char_traitsIcESaIcEEESt14default_deleteIS5_EEaSEOS8_
FNDA:0,_ZNKSt10unique_ptrINSt7__cxx1118basic_stringstreamIcSt11char_traitsIcESaIcEEESt14default_deleteIS5_EEdeEv
FNDA:0,_ZNKSt10unique_ptrINSt7__cxx1112basic_stringIcSt11char_traitsIcESaIcEEESt14default_deleteIS5_EEptEv
FNDA:0,_ZNKSt10unique_ptrINSt7__cxx1112basic_stringIcSt11char_traitsIcESaIcEEESt14default_deleteIS5_EE3getEv
FNDA:0,_ZNKSt10unique_ptrINSt7__cxx1118basic_stringstreamIcSt11char_traitsIcESaIcEEESt14default_deleteIS5_EE3getEv
FNDA:5,_ZNSt10unique_ptrINSt10filesystem7__cxx114path5_List5_ImplENS3_13_Impl_deleterEE11get_deleterEv
FNDA:0,_ZNSt10unique_ptrINSt7__cxx1112basic_stringIcSt11char_traitsIcESaIcEEESt14default_deleteIS5_EE11get_deleterEv
FNDA:0,_ZNSt10unique_ptrINSt7__cxx1118basic_stringstreamIcSt11char_traitsIcESaIcEEESt14default_deleteIS5_EE11get_deleterEv
FNDA:0,_ZNKSt10unique_ptrINSt7__cxx1112basic_stringIcSt11char_traitsIcESaIcEEESt14default_deleteIS5_EEcvbEv
FNDA:0,_ZSteqINSt7__cxx1112basic_stringIcSt11char_traitsIcESaIcEEESt14default_deleteIS5_EEbRKSt10unique_ptrIT_T0_EDn
FNDA:0,_ZStneINSt7__cxx1112basic_stringIcSt11char_traitsIcESaIcEEESt14default_deleteIS5_EEbRKSt10unique_ptrIT_T0_EDn
FNDA:0,_ZNKSt14default_deleteINSt7__cxx1112basic_stringIcSt11char_traitsIcESaIcEEEEclEPS5_
FNDA:0,_ZNKSt14default_deleteINSt7__cxx1118basic_stringstreamIcSt11char_traitsIcESaIcEEEEclEPS5_
FNF:33
FNH:8
DA:93,0
DA:99,0
DA:100,0
DA:174,3077
DA:176,0
DA:189,0
DA:191,0
DA:192,0
DA:193,0
DA:197,4228
DA:199,0
DA:201,5
DA:206,0
DA:208,0
DA:209,0
DA:210,0
DA:211,0
DA:212,0
DA:215,0
DA:217,0
DA:218,0
DA:219,0
DA:243,0
DA:304,3077
DA:305,3077
DA:306,3077
DA:317,0
DA:318,0
DA:319,0
DA:398,4228
DA:402,4228
DA:403,4228
DA:404,5
DA:405,4228
DA:406,4228
DA:414,0
DA:451,0
DA:453,0
DA:454,0
DA:460,0
DA:463,0
DA:469,0
DA:470,0
DA:475,5
DA:476,5
DA:486,0
DA:487,0
DA:837,0
DA:838,0
DA:861,0
DA:862,0
DA:1069,0
DA:1070,0
LF:53
LH:14
end_of_record
TN:
SF:/usr/include/c++/13/iomanip
FN:227,228,_ZSt4setwi
FNDA:6,_ZSt4setwi
FNF:1
FNH:1
DA:227,6
DA:228,6
LF:2
LH:2
end_of_record
TN:
SF:/usr/include/c++/13/string_view
FN:140,143,_ZNSt17basic_string_viewIcSt11char_traitsIcEEC2EPKc
FN:229,230,_ZNKSt17basic_string_viewIcSt11char_traitsIcEE4sizeEv
FN:289,290,_ZNKSt17basic_string_viewIcSt11char_traitsIcEE4dataEv
FNDA:3,_ZNSt17basic_string_viewIcSt11char_traitsIcEEC2EPKc
FNDA:0,_ZNKSt17basic_string_viewIcSt11char_traitsIcEE4sizeEv
FNDA:0,_ZNKSt17basic_string_viewIcSt11char_traitsIcEE4dataEv
FNF:3
FNH:1
DA:140,3
DA:141,3
DA:142,3
DA:143,3
DA:229,0
DA:230,0
DA:289,0
DA:290,0
LF:8
LH:4
end_of_record
TN:
SF:/usr/include/c++/13/tuple
FN:125,125,_ZNSt10_Head_baseILm1ENSt10filesystem7__cxx114path5_List13_Impl_deleterELb1EE7_M_headERS5_
FN:125,125,_ZNSt10_Head_baseILm1ESt14default_deleteINSt7__cxx1112basic_stringIcSt11char_traitsIcESaIcEEEELb1EE7_M_headERS8_
FN:125,125,_ZNSt10_Head_baseILm1ESt14default_deleteINSt7__cxx1118basic_stringstreamIcSt11char_traitsIcESaIcEEEELb1EE7_M_headERS8_
FN:1317,1319,_ZNSt5tupleIJPNSt7__cxx1112basic_stringIcSt11char_traitsIcESaIcEEESt14default_deleteIS5_EEEC2ILb1ELb1EEEv
FN:1787,1788,_ZSt12__get_helperILm0EPNSt10filesystem7__cxx114path5_List5_ImplEJNS3_13_Impl_deleterEEERT0_RSt11_Tuple_implIXT_EJS7_DpT1_EE
FN:1787,1788,_ZSt12__get_helperILm0EPNSt7__cxx1112basic_stringIcSt11char_traitsIcESaIcEEEJSt14default_deleteIS5_EEERT0_RSt11_Tuple_implIXT_EJS9_DpT1_EE
FN:1787,1788,_ZSt12__get_helperILm0EPNSt7__cxx1118basic_stringstreamIcSt11char_traitsIcESaIcEEEJSt14default_deleteIS5_EEERT0_RSt11_Tuple_implIXT_EJS9_DpT1_EE
FN:1787,1788,_ZSt12__get_helperILm1ENSt10filesystem7__cxx114path5_List13_Impl_deleterEJEERT0_RSt11_Tuple_implIXT_EJS5_DpT1_EE
FN:1787,1788,_ZSt12__get_helperILm1ESt14default_deleteINSt7__cxx1112basic_stringIcSt11char_traitsIcESaIcEEEEJEERT0_RSt11_Tuple_implIXT_EJS8_DpT1_EE
FN:1787,1788,_ZSt12__get_helperILm1ESt14default_deleteINSt7__cxx1118basic_stringstreamIcSt11char_traitsIcESaIcEEEEJEERT0_RSt11_Tuple_implIXT_EJS8_DpT1_EE
FN:1792,1793,_ZSt12__get_helperILm0EPNSt7__cxx1112basic_stringIcSt11char_traitsIcESaIcEEEJSt14default_deleteIS5_EEERKT0_RKSt11_Tuple_implIXT_EJS9_DpT1_EE
FN:1792,1793,_ZSt12__get_helperILm0EPNSt7__cxx1118basic_stringstreamIcSt11char_traitsIcESaIcEEEJSt14default_deleteIS5_EEERKT0_RKSt11_Tuple_implIXT_EJS9_DpT1_EE
FN:1803,1804,_ZSt3getILm0EJPNSt10filesystem7__cxx114path5_List5_ImplENS3_13_Impl_deleterEEERNSt13tuple_elementIXT_ESt5tupleIJDpT0_EEE4typeERSB_
FN:1803,1804,_ZSt3getILm0EJPNSt7__cxx1112basic_stringIcSt11char_traitsIcESaIcEEESt14default_deleteIS5_EEERNSt13tuple_elementIXT_ESt5tupleIJDpT0_EEE4typeERSD_
FN:1803,1804,_ZSt3getILm0EJPNSt7__cxx1118basic_stringstreamIcSt11char_traitsIcESaIcEEESt14default_deleteIS5_EEERNSt13tuple_elementIXT_ESt5tupleIJDpT0_EEE4typeERSD_
FN:1803,1804,_ZSt3getILm1EJPNSt10filesystem7__cxx114path5_List5_ImplENS3_13_Impl_deleterEEERNSt13tuple_elementIXT_ESt5tupleIJDpT0_EEE4typeERSB_
FN:1803,1804,_ZSt3getILm1EJPNSt7__cxx1112basic_stringIcSt11char_traitsIcESaIcEEESt14default_deleteIS5_EEERNSt13tuple_elementIXT_ESt5tupleIJDpT0_EEE4typeERSD_
FN:1803,1804,_ZSt3getILm1EJPNSt7__cxx1118basic_stringstreamIcSt11char_traitsIcESaIcEEESt14default_deleteIS5_EEERNSt13tuple_elementIXT_ESt5tupleIJDpT0_EEE4typeERSD_
FN:1809,1810,_ZSt3getILm0EJPNSt7__cxx1112basic_stringIcSt11char_traitsIcESaIcEEESt14default_deleteIS5_EEERKNSt13tuple_elementIXT_ESt5tupleIJDpT0_EEE4typeERKSD_
FN:1809,1810,_ZSt3getILm0EJPNSt7__cxx1118basic_stringstreamIcSt11char_traitsIcESaIcEEESt14default_deleteIS5_EEERKNSt13tuple_elementIXT_ESt5tupleIJDpT0_EEE4typeERKSD_
FN:190,191,_ZNSt10_Head_baseILm0EPNSt7__cxx1112basic_stringIcSt11char_traitsIcESaIcEEELb0EEC2Ev
FN:234,234,_ZNSt10_Head_baseILm0EPNSt10filesystem7__cxx114path5_List5_ImplELb0EE7_M_headERS6_
FN:234,234,_ZNSt10_Head_baseILm0EPNSt7__cxx1112basic_stringIcSt11char_traitsIcESaIcEEELb0EE7_M_headERS7_
FN:234,234,_ZNSt10_Head_baseILm0EPNSt7__cxx1118basic_stringstreamIcSt11char_traitsIcESaIcEEELb0EE7_M_headERS7_
FN:237,237,_ZNSt10_Head_baseILm0EPNSt7__cxx1112basic_stringIcSt11char_traitsIcESaIcEEELb0EE7_M_headERKS7_
FN:237,237,_ZNSt10_Head_baseILm0EPNSt7__cxx1118basic_stringstreamIcSt11char_traitsIcESaIcEEELb0EE7_M_headERKS7_
FN:269,269,_ZNSt11_Tuple_implILm0EJPNSt10filesystem7__cxx114path5_List5_ImplENS3_13_Impl_deleterEEE7_M_headERS7_
FN:269,269,_ZNSt11_Tuple_implILm0EJPNSt7__cxx1112basic_stringIcSt11char_traitsIcESaIcEEESt14default_deleteIS5_EEE7_M_headERS9_
FN:269,269,_ZNSt11_Tuple_implILm0EJPNSt7__cxx1118basic_stringstreamIcSt11char_traitsIcESaIcEEESt14default_deleteIS5_EEE7_M_headERS9_
FN:272,272,_ZNSt11_Tuple_implILm0EJPNSt7__cxx1112basic_stringIcSt11char_traitsIcESaIcEEESt14default_deleteIS5_EEE7_M_headERKS9_
FN:272,272,_ZNSt11_Tuple_implILm0EJPNSt7__cxx1118basic_stringstreamIcSt11char_traitsIcESaIcEEESt14default_deleteIS5_EEE7_M_headERKS9_
FN:280,281,_ZNSt11_Tuple_implILm0EJPNSt7__cxx1112basic_stringIcSt11char_traitsIcESaIcEEESt14default_deleteIS5_EEEC2Ev
FN:497,497,_ZNSt11_Tuple_implILm1EJNSt10filesystem7__cxx114path5_List13_Impl_deleterEEE7_M_headERS5_
FN:497,497,_ZNSt11_Tuple_implILm1EJSt14default_deleteINSt7__cxx1112basic_stringIcSt11char_traitsIcESaIcEEEEEE7_M_headERS8_
FN:497,497,_ZNSt11_Tuple_implILm1EJSt14default_deleteINSt7__cxx1118basic_stringstreamIcSt11char_traitsIcESaIcEEEEEE7_M_headERS8_
FN:503,504,_ZNSt11_Tuple_implILm1EJSt14default_deleteINSt7__cxx1112basic_stringIcSt11char_traitsIcESaIcEEEEEEC2Ev
FN:81,82,_ZNSt10_Head_baseILm1ESt14default_deleteINSt7__cxx1112basic_stringIcSt11char_traitsIcESaIcEEEELb1EEC2Ev
FNDA:5,_ZNSt10_Head_baseILm1ENSt10filesystem7__cxx114path5_List13_Impl_deleterELb1EE7_M_headERS5_
FNDA:0,_ZNSt10_Head_baseILm1ESt14default_deleteINSt7__cxx1112basic_stringIcSt11char_traitsIcESaIcEEEELb1EE7_M_headERS8_
FNDA:0,_ZNSt10_Head_baseILm1ESt14default_deleteINSt7__cxx1118basic_stringstreamIcSt11char_traitsIcESaIcEEEELb1EE7_M_headERS8_
FNDA:3077,_ZNSt5tupleIJPNSt7__cxx1112basic_stringIcSt11char_traitsIcESaIcEEESt14default_deleteIS5_EEEC2ILb1ELb1EEEv
FNDA:5,_ZSt12__get_helperILm0EPNSt10filesystem7__cxx114path5_List5_ImplEJNS3_13_Impl_deleterEEERT0_RSt11_Tuple_implIXT_EJS7_DpT1_EE
FNDA:4223,_ZSt12__get_helperILm0EPNSt7__cxx1112basic_stringIcSt11char_traitsIcESaIcEEEJSt14default_deleteIS5_EEERT0_RSt11_Tuple_implIXT_EJS9_DpT1_EE
FNDA:0,_ZSt12__get_helperILm0EPNSt7__cxx1118basic_stringstreamIcSt11char_traitsIcESaIcEEEJSt14default_deleteIS5_EEERT0_RSt11_Tuple_implIXT_EJS9_DpT1_EE
FNDA:5,_ZSt12__get_helperILm1ENSt10filesystem7__cxx114path5_List13_Impl_deleterEJEERT0_RSt11_Tuple_implIXT_EJS5_DpT1_EE
FNDA:0,_ZSt12__get_helperILm1ESt14default_deleteINSt7__cxx1112basic_stringIcSt11char_traitsIcESaIcEEEEJEERT0_RSt11_Tuple_implIXT_EJS8_DpT1_EE
FNDA:0,_ZSt12__get_helperILm1ESt14default_deleteINSt7__cxx1118basic_stringstreamIcSt11char_traitsIcESaIcEEEEJEERT0_RSt11_Tuple_implIXT_EJS8_DpT1_EE
FNDA:0,_ZSt12__get_helperILm0EPNSt7__cxx1112basic_stringIcSt11char_traitsIcESaIcEEEJSt14default_deleteIS5_EEERKT0_RKSt11_Tuple_implIXT_EJS9_DpT1_EE
FNDA:0,_ZSt12__get_helperILm0EPNSt7__cxx1118basic_stringstreamIcSt11char_traitsIcESaIcEEEJSt14default_deleteIS5_EEERKT0_RKSt11_Tuple_implIXT_EJS9_DpT1_EE
FNDA:5,_ZSt3getILm0EJPNSt10filesystem7__cxx114path5_List5_ImplENS3_13_Impl_deleterEEERNSt13tuple_elementIXT_ESt5tupleIJDpT0_EEE4typeERSB_
FNDA:4223,_ZSt3getILm0EJPNSt7__cxx1112basic_stringIcSt11char_traitsIcESaIcEEESt14default_deleteIS5_EEERNSt13tuple_elementIXT_ESt5tupleIJDpT0_EEE4typeERSD_
FNDA:0,_ZSt3getILm0EJPNSt7__cxx1118basic_stringstreamIcSt11char_traitsIcESaIcEEESt14default_deleteIS5_EEERNSt13tuple_elementIXT_ESt5tupleIJDpT0_EEE4typeERSD_
FNDA:5,_ZSt3getILm1EJPNSt10filesystem7__cxx114path5_List5_ImplENS3_13_Impl_deleterEEERNSt13tuple_elementIXT_ESt5tupleIJDpT0_EEE4typeERSB_
FNDA:0,_ZSt3getILm1EJPNSt7__cxx1112basic_stringIcSt11char_traitsIcESaIcEEESt14default_deleteIS5_EEERNSt13tuple_elementIXT_ESt5tupleIJDpT0_EEE4typeERSD_
FNDA:0,_ZSt3getILm1EJPNSt7__cxx1118basic_stringstreamIcSt11char_traitsIcESaIcEEESt14default_deleteIS5_EEERNSt13tuple_elementIXT_ESt5tupleIJDpT0_EEE4typeERSD_
FNDA:0,_ZSt3getILm0EJPNSt7__cxx1112basic_stringIcSt11char_traitsIcESaIcEEESt14default_deleteIS5_EEERKNSt13tuple_elementIXT_ESt5tupleIJDpT0_EEE4typeERKSD_
FNDA:0,_ZSt3getILm0EJPNSt7__cxx1118basic_stringstreamIcSt11char_traitsIcESaIcEEESt14default_deleteIS5_EEERKNSt13tuple_elementIXT_ESt5tupleIJDpT0_EEE4typeERKSD_
FNDA:3077,_ZNSt10_Head_baseILm0EPNSt7__cxx1112basic_stringIcSt11char_traitsIcESaIcEEELb0EEC2Ev
FNDA:5,_ZNSt10_Head_baseILm0EPNSt10filesystem7__cxx114path5_List5_ImplELb0EE7_M_headERS6_
FNDA:4223,_ZNSt10_Head_baseILm0EPNSt7__cxx1112basic_stringIcSt11char_traitsIcESaIcEEELb0EE7_M_headERS7_
FNDA:0,_ZNSt10_Head_baseILm0EPNSt7__cxx1118basic_stringstreamIcSt11char_traitsIcESaIcEEELb0EE7_M_headERS7_
FNDA:0,_ZNSt10_Head_baseILm0EPNSt7__cxx1112basic_stringIcSt11char_traitsIcESaIcEEELb0EE7_M_headERKS7_
FNDA:0,_ZNSt10_Head_baseILm0EPNSt7__cxx1118basic_stringstreamIcSt11char_traitsIcESaIcEEELb0EE7_M_headERKS7_
FNDA:5,_ZNSt11_Tuple_implILm0EJPNSt10filesystem7__cxx114path5_List5_ImplENS3_13_Impl_deleterEEE7_M_headERS7_
FNDA:4223,_ZNSt11_Tuple_implILm0EJPNSt7__cxx1112basic_stringIcSt11char_traitsIcESaIcEEESt14default_deleteIS5_EEE7_M_headERS9_
FNDA:0,_ZNSt11_Tuple_implILm0EJPNSt7__cxx1118basic_stringstreamIcSt11char_traitsIcESaIcEEESt14default_deleteIS5_EEE7_M_headERS9_
FNDA:0,_ZNSt11_Tuple_implILm0EJPNSt7__cxx1112basic_stringIcSt11char_traitsIcESaIcEEESt14default_deleteIS5_EEE7_M_headERKS9_
FNDA:0,_ZNSt11_Tuple_implILm0EJPNSt7__cxx1118basic_stringstreamIcSt11char_traitsIcESaIcEEESt14default_deleteIS5_EEE7_M_headERKS9_
FNDA:3077,_ZNSt11_Tuple_implILm0EJPNSt7__cxx1112basic_stringIcSt11char_traitsIcESaIcEEESt14default_deleteIS5_EEEC2Ev
FNDA:5,_ZNSt11_Tuple_implILm1EJNSt10filesystem7__cxx114path5_List13_Impl_deleterEEE7_M_headERS5_
FNDA:0,_ZNSt11_Tuple_implILm1EJSt14default_deleteINSt7__cxx1112basic_stringIcSt11char_traitsIcESaIcEEEEEE7_M_headERS8_
FNDA:0,_ZNSt11_Tuple_implILm1EJSt14default_deleteINSt7__cxx1118basic_stringstreamIcSt11char_traitsIcESaIcEEEEEE7_M_headERS8_
FNDA:3077,_ZNSt11_Tuple_implILm1EJSt14default_deleteINSt7__cxx1112basic_stringIcSt11char_traitsIcESaIcEEEEEEC2Ev
FNDA:3077,_ZNSt10_Head_baseILm1ESt14default_deleteINSt7__cxx1112basic_stringIcSt11char_traitsIcESaIcEEEELb1EEC2Ev
FNF:37
FNH:17
DA:81,3077
DA:82,3077
DA:125,5
DA:190,3077
DA:191,3077
DA:234,4228
DA:237,0
DA:269,4228
DA:272,0
DA:280,3077
DA:281,3077
DA:497,5
DA:503,3077
DA:504,3077
DA:1317,3077
DA:1319,3077
DA:1787,4233
DA:1788,4233
DA:1792,0
DA:1793,0
DA:1803,4233
DA:1804,4233
DA:1809,0
DA:1810,0
LF:24
LH:18
end_of_record
TN:
SF:/usr/include/gtest/gtest-assertion-result.h
FN:155,161,_ZN7testing15AssertionResultC2ISiEERKT_PNSt9enable_ifIXntsrSt14is_convertibleIS2_S0_E5valueEvE4typeE
FN:155,161,_ZN7testing15AssertionResultC2IbEERKT_PNSt9enable_ifIXntsrSt14is_convertibleIS2_S0_E5valueEvE4typeE
FN:174,174,_ZNK7testing15AssertionResultcvbEv
FN:183,185,_ZNK7testing15AssertionResult7messageEv
FN:187,187,_ZNK7testing15AssertionResult15failure_messageEv
FN:191,194,_ZN7testing15AssertionResultlsIA12_cEERS0_RKT_
FN:191,194,_ZN7testing15AssertionResultlsIA3_cEERS0_RKT_
FN:191,194,_ZN7testing15AssertionResultlsIA5_cEERS0_RKT_
FN:191,194,_ZN7testing15AssertionResultlsINSt7__cxx1112basic_stringIcSt11char_traitsIcESaIcEEEEERS0_RKT_
FN:191,194,_ZN7testing15AssertionResultlsIPKcEERS0_RKT_
FN:206,209,_ZN7testing15AssertionResult13AppendMessageERKNS_7MessageE
FNDA:3,_ZN7testing15AssertionResultC2ISiEERKT_PNSt9enable_ifIXntsrSt14is_convertibleIS2_S0_E5valueEvE4typeE
FNDA:3074,_ZN7testing15AssertionResultC2IbEERKT_PNSt9enable_ifIXntsrSt14is_convertibleIS2_S0_E5valueEvE4typeE
FNDA:4223,_ZNK7testing15AssertionResultcvbEv
FNDA:0,_ZNK7testing15AssertionResult7messageEv
FNDA:0,_ZNK7testing15AssertionResult15failure_messageEv
FNDA:0,_ZN7testing15AssertionResultlsIA12_cEERS0_RKT_
FNDA:0,_ZN7testing15AssertionResultlsIA3_cEERS0_RKT_
FNDA:0,_ZN7testing15AssertionResultlsIA5_cEERS0_RKT_
FNDA:0,_ZN7testing15AssertionResultlsINSt7__cxx1112basic_stringIcSt11char_traitsIcESaIcEEEEERS0_RKT_
FNDA:0,_ZN7testing15AssertionResultlsIPKcEERS0_RKT_
FNDA:0,_ZN7testing15AssertionResult13AppendMessageERKNS_7MessageE
FNF:11
FNH:3
DA:155,3077
DA:161,3077
DA:174,4223
DA:183,0
DA:184,0
DA:187,0
DA:191,0
DA:192,0
DA:193,0
DA:206,0
DA:207,0
DA:208,0
DA:209,0
LF:13
LH:3
end_of_record
TN:
SF:/usr/include/gtest/gtest-message.h
FN:132,150,_ZN7testing7MessagelsIA12_cEERS0_RKT_
FN:132,150,_ZN7testing7MessagelsIA3_cEERS0_RKT_
FN:132,150,_ZN7testing7MessagelsIA5_cEERS0_RKT_
FN:132,150,_ZN7testing7MessagelsINSt7__cxx1112basic_stringIcSt11char_traitsIcESaIcEEEEERS0_RKT_
FN:182,189,_ZN7testing7MessagelsIKcEERS0_RKPT_
FNDA:0,_ZN7testing7MessagelsIA12_cEERS0_RKT_
FNDA:0,_ZN7testing7MessagelsIA3_cEERS0_RKT_
FNDA:0,_ZN7testing7MessagelsIA5_cEERS0_RKT_
FNDA:0,_ZN7testing7MessagelsINSt7__cxx1112basic_stringIcSt11char_traitsIcESaIcEEEEERS0_RKT_
FNDA:0,_ZN7testing7MessagelsIKcEERS0_RKPT_
FNF:5
FNH:0
DA:132,0
DA:148,0
DA:149,0
DA:182,0
DA:183,0
DA:184,0
DA:186,0
DA:188,0
LF:8
LH:0
end_of_record
TN:
SF:/usr/include/gtest/gtest-printers.h
FN:1017,1023,_ZN7testing8internal21UniversalTersePrinterIPKcE5PrintES3_PSo
FN:1108,1113,_ZN7testing8internal14UniversalPrintIDnEEvRKT_PSo
FN:1108,1113,_ZN7testing8internal14UniversalPrintINSt7__cxx1112basic_stringIcSt11char_traitsIcESaIcEEEEEvRKT_PSo
FN:1108,1113,_ZN7testing8internal14UniversalPrintIPN5ListD4NodeEEEvRKT_PSo
FN:1108,1113,_ZN7testing8internal14UniversalPrintIPN5ListS4NodeEEEvRKT_PSo
FN:1108,1113,_ZN7testing8internal14UniversalPrintIPN5Queue4NodeEEEvRKT_PSo
FN:1108,1113,_ZN7testing8internal14UniversalPrintIPN5Stack4NodeEEEvRKT_PSo
FN:1108,1113,_ZN7testing8internal14UniversalPrintIiEEvRKT_PSo
FN:1108,1113,_ZN7testing8internal14UniversalPrintImEEvRKT_PSo
FN:1148,1152,_ZN7testing13PrintToStringIDnEENSt7__cxx1112basic_stringIcSt11char_traitsIcESaIcEEERKT_
FN:1148,1152,_ZN7testing13PrintToStringINSt7__cxx1112basic_stringIcSt11char_traitsIcESaIcEEEEES6_RKT_
FN:1148,1152,_ZN7testing13PrintToStringIPKcEENSt7__cxx1112basic_stringIcSt11char_traitsIcESaIcEEERKT_
FN:1148,1152,_ZN7testing13PrintToStringIPN5ListD4NodeEEENSt7__cxx1112basic_stringIcSt11char_traitsIcESaIcEEERKT_
FN:1148,1152,_ZN7testing13PrintToStringIPN5ListS4NodeEEENSt7__cxx1112basic_stringIcSt11char_traitsIcESaIcEEERKT_
FN:1148,1152,_ZN7testing13PrintToStringIPN5Queue4NodeEEENSt7__cxx1112basic_stringIcSt11char_traitsIcESaIcEEERKT_
FN:1148,1152,_ZN7testing13PrintToStringIPN5Stack4NodeEEENSt7__cxx1112basic_stringIcSt11char_traitsIcESaIcEEERKT_
FN:1148,1152,_ZN7testing13PrintToStringIiEENSt7__cxx1112basic_stringIcSt11char_traitsIcESaIcEEERKT_
FN:1148,1152,_ZN7testing13PrintToStringImEENSt7__cxx1112basic_stringIcSt11char_traitsIcESaIcEEERKT_
FN:190,199,_ZN7testing8internal14PointerPrinter10PrintValueIN5ListD4NodeEEEvPT_PSo
FN:190,199,_ZN7testing8internal14PointerPrinter10PrintValueIN5ListS4NodeEEEvPT_PSo
FN:190,199,_ZN7testing8internal14PointerPrinter10PrintValueIN5Queue4NodeEEEvPT_PSo
FN:190,199,_ZN7testing8internal14PointerPrinter10PrintValueIN5Stack4NodeEEEvPT_PSo
FN:221,226,_ZN7testing8internal52internal_stream_operator_without_lexical_name_lookup13StreamPrinter10PrintValueIivEEDTcvvlsdefp0_fp_ERKT_PSo
FN:221,226,_ZN7testing8internal52internal_stream_operator_without_lexical_name_lookup13StreamPrinter10PrintValueImvEEDTcvvlsdefp0_fp_ERKT_PSo
FN:326,337,_ZN7testing8internal17PrintWithFallbackIPN5ListD4NodeEEEvRKT_PSo
FN:326,337,_ZN7testing8internal17PrintWithFallbackIPN5ListS4NodeEEEvRKT_PSo
FN:326,337,_ZN7testing8internal17PrintWithFallbackIPN5Queue4NodeEEEvRKT_PSo
FN:326,337,_ZN7testing8internal17PrintWithFallbackIPN5Stack4NodeEEEvRKT_PSo
FN:326,337,_ZN7testing8internal17PrintWithFallbackIiEEvRKT_PSo
FN:326,337,_ZN7testing8internal17PrintWithFallbackImEEvRKT_PSo
FN:357,359,_ZN7testing8internal19FormatForComparisonIDnPN5ListD4NodeEE6FormatB5cxx11ERKDn
FN:357,359,_ZN7testing8internal19FormatForComparisonIDnPN5ListS4NodeEE6FormatB5cxx11ERKDn
FN:357,359,_ZN7testing8internal19FormatForComparisonIDnPN5Queue4NodeEE6FormatB5cxx11ERKDn
FN:357,359,_ZN7testing8internal19FormatForComparisonIDnPN5Stack4NodeEE6FormatB5cxx11ERKDn
FN:357,359,_ZN7testing8internal19FormatForComparisonINSt7__cxx1112basic_stringIcSt11char_traitsIcESaIcEEEA11_cE6FormatERKS7_
FN:357,359,_ZN7testing8internal19FormatForComparisonINSt7__cxx1112basic_stringIcSt11char_traitsIcESaIcEEEA14_cE6FormatERKS7_
FN:357,359,_ZN7testing8internal19FormatForComparisonINSt7__cxx1112basic_stringIcSt11char_traitsIcESaIcEEEA1_cE6FormatERKS7_
FN:357,359,_ZN7testing8internal19FormatForComparisonINSt7__cxx1112basic_stringIcSt11char_traitsIcESaIcEEEA21_cE6FormatERKS7_
FN:357,359,_ZN7testing8internal19FormatForComparisonINSt7__cxx1112basic_stringIcSt11char_traitsIcESaIcEEEA23_cE6FormatERKS7_
FN:357,359,_ZN7testing8internal19FormatForComparisonINSt7__cxx1112basic_stringIcSt11char_traitsIcESaIcEEEA2_cE6FormatERKS7_
FN:357,359,_ZN7testing8internal19FormatForComparisonINSt7__cxx1112basic_stringIcSt11char_traitsIcESaIcEEEA30_cE6FormatERKS7_
FN:357,359,_ZN7testing8internal19FormatForComparisonINSt7__cxx1112basic_stringIcSt11char_traitsIcESaIcEEEA34_cE6FormatERKS7_
FN:357,359,_ZN7testing8internal19FormatForComparisonINSt7__cxx1112basic_stringIcSt11char_traitsIcESaIcEEEA35_cE6FormatERKS7_
FN:357,359,_ZN7testing8internal19FormatForComparisonINSt7__cxx1112basic_stringIcSt11char_traitsIcESaIcEEEA4_cE6FormatERKS7_
FN:357,359,_ZN7testing8internal19FormatForComparisonINSt7__cxx1112basic_stringIcSt11char_traitsIcESaIcEEEA5_cE6FormatERKS7_
FN:357,359,_ZN7testing8internal19FormatForComparisonINSt7__cxx1112basic_stringIcSt11char_traitsIcESaIcEEEA6_cE6FormatERKS7_
FN:357,359,_ZN7testing8internal19FormatForComparisonINSt7__cxx1112basic_stringIcSt11char_traitsIcESaIcEEEA7_cE6FormatERKS7_
FN:357,359,_ZN7testing8internal19FormatForComparisonINSt7__cxx1112basic_stringIcSt11char_traitsIcESaIcEEEA9_cE6FormatERKS7_
FN:357,359,_ZN7testing8internal19FormatForComparisonINSt7__cxx1112basic_stringIcSt11char_traitsIcESaIcEEES7_E6FormatERKS7_
FN:357,359,_ZN7testing8internal19FormatForComparisonIPN5ListD4NodeEDnE6FormatB5cxx11ERKS4_
FN:357,359,_ZN7testing8internal19FormatForComparisonIPN5ListS4NodeEDnE6FormatB5cxx11ERKS4_
FN:357,359,_ZN7testing8internal19FormatForComparisonIPN5Queue4NodeEDnE6FormatB5cxx11ERKS4_
FN:357,359,_ZN7testing8internal19FormatForComparisonIPN5Stack4NodeEDnE6FormatB5cxx11ERKS4_
FN:357,359,_ZN7testing8internal19FormatForComparisonIiiE6FormatB5cxx11ERKi
FN:357,359,_ZN7testing8internal19FormatForComparisonIimE6FormatB5cxx11ERKi
FN:357,359,_ZN7testing8internal19FormatForComparisonImiE6FormatB5cxx11ERKm
FN:357,359,_ZN7testing8internal19FormatForComparisonImmE6FormatB5cxx11ERKm
FN:366,368,_ZN7testing8internal19FormatForComparisonIA11_cNSt7__cxx1112basic_stringIcSt11char_traitsIcESaIcEEEE6FormatEPKc
FN:366,368,_ZN7testing8internal19FormatForComparisonIA14_cNSt7__cxx1112basic_stringIcSt11char_traitsIcESaIcEEEE6FormatEPKc
FN:366,368,_ZN7testing8internal19FormatForComparisonIA1_cNSt7__cxx1112basic_stringIcSt11char_traitsIcESaIcEEEE6FormatEPKc
FN:366,368,_ZN7testing8internal19FormatForComparisonIA21_cNSt7__cxx1112basic_stringIcSt11char_traitsIcESaIcEEEE6FormatEPKc
FN:366,368,_ZN7testing8internal19FormatForComparisonIA23_cNSt7__cxx1112basic_stringIcSt11char_traitsIcESaIcEEEE6FormatEPKc
FN:366,368,_ZN7testing8internal19FormatForComparisonIA2_cNSt7__cxx1112basic_stringIcSt11char_traitsIcESaIcEEEE6FormatEPKc
FN:366,368,_ZN7testing8internal19FormatForComparisonIA30_cNSt7__cxx1112basic_stringIcSt11char_traitsIcESaIcEEEE6FormatEPKc
FN:366,368,_ZN7testing8internal19FormatForComparisonIA34_cNSt7__cxx1112basic_stringIcSt11char_traitsIcESaIcEEEE6FormatEPKc
FN:366,368,_ZN7testing8internal19FormatForComparisonIA35_cNSt7__cxx1112basic_stringIcSt11char_traitsIcESaIcEEEE6FormatEPKc
FN:366,368,_ZN7testing8internal19FormatForComparisonIA4_cNSt7__cxx1112basic_stringIcSt11char_traitsIcESaIcEEEE6FormatEPKc
FN:366,368,_ZN7testing8internal19FormatForComparisonIA5_cNSt7__cxx1112basic_stringIcSt11char_traitsIcESaIcEEEE6FormatEPKc
FN:366,368,_ZN7testing8internal19FormatForComparisonIA6_cNSt7__cxx1112basic_stringIcSt11char_traitsIcESaIcEEEE6FormatEPKc
FN:366,368,_ZN7testing8internal19FormatForComparisonIA7_cNSt7__cxx1112basic_stringIcSt11char_traitsIcESaIcEEEE6FormatEPKc
FN:366,368,_ZN7testing8internal19FormatForComparisonIA9_cNSt7__cxx1112basic_stringIcSt11char_traitsIcESaIcEEEE6FormatEPKc
FN:411,411,_ZN7testing8internal19FormatForComparisonIPKcNSt7__cxx1112basic_stringIcSt11char_traitsIcESaIcEEEE6FormatES3_
FN:437,440,_ZN7testing8internal33FormatForComparisonFailureMessageIA11_cNSt7__cxx1112basic_stringIcSt11char_traitsIcESaIcEEEEES8_RKT_RKT0_
FN:437,440,_ZN7testing8internal33FormatForComparisonFailureMessageIA14_cNSt7__cxx1112basic_stringIcSt11char_traitsIcESaIcEEEEES8_RKT_RKT0_
FN:437,440,_ZN7testing8internal33FormatForComparisonFailureMessageIA1_cNSt7__cxx1112basic_stringIcSt11char_traitsIcESaIcEEEEES8_RKT_RKT0_
FN:437,440,_ZN7testing8internal33FormatForComparisonFailureMessageIA21_cNSt7__cxx1112basic_stringIcSt11char_traitsIcESaIcEEEEES8_RKT_RKT0_
FN:437,440,_ZN7testing8internal33FormatForComparisonFailureMessageIA23_cNSt7__cxx1112basic_stringIcSt11char_traitsIcESaIcEEEEES8_RKT_RKT0_
FN:437,440,_ZN7testing8internal33FormatForComparisonFailureMessageIA2_cNSt7__cxx1112basic_stringIcSt11char_traitsIcESaIcEEEEES8_RKT_RKT0_
FN:437,440,_ZN7testing8internal33FormatForComparisonFailureMessageIA30_cNSt7__cxx1112basic_stringIcSt11char_traitsIcESaIcEEEEES8_RKT_RKT0_
FN:437,440,_ZN7testing8internal33FormatForComparisonFailureMessageIA34_cNSt7__cxx1112basic_stringIcSt11char_traitsIcESaIcEEEEES8_RKT_RKT0_
FN:437,440,_ZN7testing8internal33FormatForComparisonFailureMessageIA35_cNSt7__cxx1112basic_stringIcSt11char_traitsIcESaIcEEEEES8_RKT_RKT0_
FN:437,440,_ZN7testing8internal33FormatForComparisonFailureMessageIA4_cNSt7__cxx1112basic_stringIcSt11char_traitsIcESaIcEEEEES8_RKT_RKT0_
FN:437,440,_ZN7testing8internal33FormatForComparisonFailureMessageIA5_cNSt7__cxx1112basic_stringIcSt11char_traitsIcESaIcEEEEES8_RKT_RKT0_
FN:437,440,_ZN7testing8internal33FormatForComparisonFailureMessageIA6_cNSt7__cxx1112basic_stringIcSt11char_traitsIcESaIcEEEEES8_RKT_RKT0_
FN:437,440,_ZN7testing8internal33FormatForComparisonFailureMessageIA7_cNSt7__cxx1112basic_stringIcSt11char_traitsIcESaIcEEEEES8_RKT_RKT0_
FN:437,440,_ZN7testing8internal33FormatForComparisonFailureMessageIA9_cNSt7__cxx1112basic_stringIcSt11char_traitsIcESaIcEEEEES8_RKT_RKT0_
FN:437,440,_ZN7testing8internal33FormatForComparisonFailureMessageIDnPN5ListD4NodeEEENSt7__cxx1112basic_stringIcSt11char_traitsIcESaIcEEERKT_RKT0_
FN:437,440,_ZN7testing8internal33FormatForComparisonFailureMessageIDnPN5ListS4NodeEEENSt7__cxx1112basic_stringIcSt11char_traitsIcESaIcEEERKT_RKT0_
FN:437,440,_ZN7testing8internal33FormatForComparisonFailureMessageIDnPN5Queue4NodeEEENSt7__cxx1112basic_stringIcSt11char_traitsIcESaIcEEERKT_RKT0_
FN:437,440,_ZN7testing8internal33FormatForComparisonFailureMessageIDnPN5Stack4NodeEEENSt7__cxx1112basic_stringIcSt11char_traitsIcESaIcEEERKT_RKT0_
FN:437,440,_ZN7testing8internal33FormatForComparisonFailureMessageINSt7__cxx1112basic_stringIcSt11char_traitsIcESaIcEEEA11_cEES7_RKT_RKT0_
FN:437,440,_ZN7testing8internal33FormatForComparisonFailureMessageINSt7__cxx1112basic_stringIcSt11char_traitsIcESaIcEEEA14_cEES7_RKT_RKT0_
FN:437,440,_ZN7testing8internal33FormatForComparisonFailureMessageINSt7__cxx1112basic_stringIcSt11char_traitsIcESaIcEEEA1_cEES7_RKT_RKT0_
FN:437,440,_ZN7testing8internal33FormatForComparisonFailureMessageINSt7__cxx1112basic_stringIcSt11char_traitsIcESaIcEEEA21_cEES7_RKT_RKT0_
FN:437,440,_ZN7testing8internal33FormatForComparisonFailureMessageINSt7__cxx1112basic_stringIcSt11char_traitsIcESaIcEEEA23_cEES7_RKT_RKT0_
FN:437,440,_ZN7testing8internal33FormatForComparisonFailureMessageINSt7__cxx1112basic_stringIcSt11char_traitsIcESaIcEEEA2_cEES7_RKT_RKT0_
FN:437,440,_ZN7testing8internal33FormatForComparisonFailureMessageINSt7__cxx1112basic_stringIcSt11char_traitsIcESaIcEEEA30_cEES7_RKT_RKT0_
FN:437,440,_ZN7testing8internal33FormatForComparisonFailureMessageINSt7__cxx1112basic_stringIcSt11char_traitsIcESaIcEEEA34_cEES7_RKT_RKT0_
FN:437,440,_ZN7testing8internal33FormatForComparisonFailureMessageINSt7__cxx1112basic_stringIcSt11char_traitsIcESaIcEEEA35_cEES7_RKT_RKT0_
FN:437,440,_ZN7testing8internal33FormatForComparisonFailureMessageINSt7__cxx1112basic_stringIcSt11char_traitsIcESaIcEEEA4_cEES7_RKT_RKT0_
FN:437,440,_ZN7testing8internal33FormatForComparisonFailureMessageINSt7__cxx1112basic_stringIcSt11char_traitsIcESaIcEEEA5_cEES7_RKT_RKT0_
FN:437,440,_ZN7testing8internal33FormatForComparisonFailureMessageINSt7__cxx1112basic_stringIcSt11char_traitsIcESaIcEEEA6_cEES7_RKT_RKT0_
FN:437,440,_ZN7testing8internal33FormatForComparisonFailureMessageINSt7__cxx1112basic_stringIcSt11char_traitsIcESaIcEEEA7_cEES7_RKT_RKT0_
FN:437,440,_ZN7testing8internal33FormatForComparisonFailureMessageINSt7__cxx1112basic_stringIcSt11char_traitsIcESaIcEEEA9_cEES7_RKT_RKT0_
FN:437,440,_ZN7testing8internal33FormatForComparisonFailureMessageINSt7__cxx1112basic_stringIcSt11char_traitsIcESaIcEEES7_EES7_RKT_RKT0_
FN:437,440,_ZN7testing8internal33FormatForComparisonFailureMessageIPN5ListD4NodeEDnEENSt7__cxx1112basic_stringIcSt11char_traitsIcESaIcEEERKT_RKT0_
FN:437,440,_ZN7testing8internal33FormatForComparisonFailureMessageIPN5ListS4NodeEDnEENSt7__cxx1112basic_stringIcSt11char_traitsIcESaIcEEERKT_RKT0_
FN:437,440,_ZN7testing8internal33FormatForComparisonFailureMessageIPN5Queue4NodeEDnEENSt7__cxx1112basic_stringIcSt11char_traitsIcESaIcEEERKT_RKT0_
FN:437,440,_ZN7testing8internal33FormatForComparisonFailureMessageIPN5Stack4NodeEDnEENSt7__cxx1112basic_stringIcSt11char_traitsIcESaIcEEERKT_RKT0_
FN:437,440,_ZN7testing8internal33FormatForComparisonFailureMessageIiiEENSt7__cxx1112basic_stringIcSt11char_traitsIcESaIcEEERKT_RKT0_
FN:437,440,_ZN7testing8internal33FormatForComparisonFailureMessageIimEENSt7__cxx1112basic_stringIcSt11char_traitsIcESaIcEEERKT_RKT0_
FN:437,440,_ZN7testing8internal33FormatForComparisonFailureMessageImiEENSt7__cxx1112basic_stringIcSt11char_traitsIcESaIcEEERKT_RKT0_
FN:437,440,_ZN7testing8internal33FormatForComparisonFailureMessageImmEENSt7__cxx1112basic_stringIcSt11char_traitsIcESaIcEEERKT_RKT0_
FN:464,466,_ZN7testing8internal7PrintToIPN5ListD4NodeEEEvRKT_PSo
FN:464,466,_ZN7testing8internal7PrintToIPN5ListS4NodeEEEvRKT_PSo
FN:464,466,_ZN7testing8internal7PrintToIPN5Queue4NodeEEEvRKT_PSo
FN:464,466,_ZN7testing8internal7PrintToIPN5Stack4NodeEEEvRKT_PSo
FN:464,466,_ZN7testing8internal7PrintToIiEEvRKT_PSo
FN:464,466,_ZN7testing8internal7PrintToImEEvRKT_PSo
FN:660,662,_ZN7testing8internal7PrintToERKNSt7__cxx1112basic_stringIcSt11char_traitsIcESaIcEEEPSo
FN:699,699,_ZN7testing8internal7PrintToEDnPSo
FN:799,809,_ZN7testing8internal16UniversalPrinterIDnE5PrintERKDnPSo
FN:799,809,_ZN7testing8internal16UniversalPrinterINSt7__cxx1112basic_stringIcSt11char_traitsIcESaIcEEEE5PrintERKS7_PSo
FN:799,809,_ZN7testing8internal16UniversalPrinterIPN5ListD4NodeEE5PrintERKS4_PSo
FN:799,809,_ZN7testing8internal16UniversalPrinterIPN5ListS4NodeEE5PrintERKS4_PSo
FN:799,809,_ZN7testing8internal16UniversalPrinterIPN5Queue4NodeEE5PrintERKS4_PSo
FN:799,809,_ZN7testing8internal16UniversalPrinterIPN5Stack4NodeEE5PrintERKS4_PSo
FN:799,809,_ZN7testing8internal16UniversalPrinterIiE5PrintERKiPSo
FN:799,809,_ZN7testing8internal16UniversalPrinterImE5PrintERKmPSo
FN:989,991,_ZN7testing8internal21UniversalTersePrinterIDnE5PrintERKDnPSo
FN:989,991,_ZN7testing8internal21UniversalTersePrinterINSt7__cxx1112basic_stringIcSt11char_traitsIcESaIcEEEE5PrintERKS7_PSo
FN:989,991,_ZN7testing8internal21UniversalTersePrinterIPN5ListD4NodeEE5PrintERKS4_PSo
FN:989,991,_ZN7testing8internal21UniversalTersePrinterIPN5ListS4NodeEE5PrintERKS4_PSo
FN:989,991,_ZN7testing8internal21UniversalTersePrinterIPN5Queue4NodeEE5PrintERKS4_PSo
FN:989,991,_ZN7testing8internal21UniversalTersePrinterIPN5Stack4NodeEE5PrintERKS4_PSo
FN:989,991,_ZN7testing8internal21UniversalTersePrinterIiE5PrintERKiPSo
FN:989,991,_ZN7testing8internal21UniversalTersePrinterImE5PrintERKmPSo
FNDA:0,_ZN7testing8internal21UniversalTersePrinterIPKcE5PrintES3_PSo
FNDA:0,_ZN7testing8internal14UniversalPrintIDnEEvRKT_PSo
FNDA:0,_ZN7testing8internal14UniversalPrintINSt7__cxx1112basic_stringIcSt11char_traitsIcESaIcEEEEEvRKT_PSo
FNDA:0,_ZN7testing8internal14UniversalPrintIPN5ListD4NodeEEEvRKT_PSo
FNDA:0,_ZN7testing8internal14UniversalPrintIPN5ListS4NodeEEEvRKT_PSo
FNDA:0,_ZN7testing8internal14UniversalPrintIPN5Queue4NodeEEEvRKT_PSo
FNDA:0,_ZN7testing8internal14UniversalPrintIPN5Stack4NodeEEEvRKT_PSo
FNDA:0,_ZN7testing8internal14UniversalPrintIiEEvRKT_PSo
FNDA:0,_ZN7testing8internal14UniversalPrintImEEvRKT_PSo
FNDA:0,_ZN7testing13PrintToStringIDnEENSt7__cxx1112basic_stringIcSt11char_traitsIcESaIcEEERKT_
FNDA:0,_ZN7testing13PrintToStringINSt7__cxx1112basic_stringIcSt11char_traitsIcESaIcEEEEES6_RKT_
FNDA:0,_ZN7testing13PrintToStringIPKcEENSt7__cxx1112basic_stringIcSt11char_traitsIcESaIcEEERKT_
FNDA:0,_ZN7testing13PrintToStringIPN5ListD4NodeEEENSt7__cxx1112basic_stringIcSt11char_traitsIcESaIcEEERKT_
FNDA:0,_ZN7testing13PrintToStringIPN5ListS4NodeEEENSt7__cxx1112basic_stringIcSt11char_traitsIcESaIcEEERKT_
FNDA:0,_ZN7testing13PrintToStringIPN5Queue4NodeEEENSt7__cxx1112basic_stringIcSt11char_traitsIcESaIcEEERKT_
FNDA:0,_ZN7testing13PrintToStringIPN5Stack4NodeEEENSt7__cxx1112basic_stringIcSt11char_traitsIcESaIcEEERKT_
FNDA:0,_ZN7testing13PrintToStringIiEENSt7__cxx1112basic_stringIcSt11char_traitsIcESaIcEEERKT_
FNDA:0,_ZN7testing13PrintToStringImEENSt7__cxx1112basic_stringIcSt11char_traitsIcESaIcEEERKT_
FNDA:0,_ZN7testing8internal14PointerPrinter10PrintValueIN5ListD4NodeEEEvPT_PSo
FNDA:0,_ZN7testing8internal14PointerPrinter10PrintValueIN5ListS4NodeEEEvPT_PSo
FNDA:0,_ZN7testing8internal14PointerPrinter10PrintValueIN5Queue4NodeEEEvPT_PSo
FNDA:0,_ZN7testing8internal14PointerPrinter10PrintValueIN5Stack4NodeEEEvPT_PSo
FNDA:0,_ZN7testing8internal52internal_stream_operator_without_lexical_name_lookup13StreamPrinter10PrintValueIivEEDTcvvlsdefp0_fp_ERKT_PSo
FNDA:0,_ZN7testing8internal52internal_stream_operator_without_lexical_name_lookup13StreamPrinter10PrintValueImvEEDTcvvlsdefp0_fp_ERKT_PSo
FNDA:0,_ZN7testing8internal17PrintWithFallbackIPN5ListD4NodeEEEvRKT_PSo
FNDA:0,_ZN7testing8internal17PrintWithFallbackIPN5ListS4NodeEEEvRKT_PSo
FNDA:0,_ZN7testing8internal17PrintWithFallbackIPN5Queue4NodeEEEvRKT_PSo
FNDA:0,_ZN7testing8internal17PrintWithFallbackIPN5Stack4NodeEEEvRKT_PSo
FNDA:0,_ZN7testing8internal17PrintWithFallbackIiEEvRKT_PSo
FNDA:0,_ZN7testing8internal17PrintWithFallbackImEEvRKT_PSo
FNDA:0,_ZN7testing8internal19FormatForComparisonIDnPN5ListD4NodeEE6FormatB5cxx11ERKDn
FNDA:0,_ZN7testing8internal19FormatForComparisonIDnPN5ListS4NodeEE6FormatB5cxx11ERKDn
FNDA:0,_ZN7testing8internal19FormatForComparisonIDnPN5Queue4NodeEE6FormatB5cxx11ERKDn
FNDA:0,_ZN7testing8internal19FormatForComparisonIDnPN5Stack4NodeEE6FormatB5cxx11ERKDn
FNDA:0,_ZN7testing8internal19FormatForComparisonINSt7__cxx1112basic_stringIcSt11char_traitsIcESaIcEEEA11_cE6FormatERKS7_
FNDA:0,_ZN7testing8internal19FormatForComparisonINSt7__cxx1112basic_stringIcSt11char_traitsIcESaIcEEEA14_cE6FormatERKS7_
FNDA:0,_ZN7testing8internal19FormatForComparisonINSt7__cxx1112basic_stringIcSt11char_traitsIcESaIcEEEA1_cE6FormatERKS7_
FNDA:0,_ZN7testing8internal19FormatForComparisonINSt7__cxx1112basic_stringIcSt11char_traitsIcESaIcEEEA21_cE6FormatERKS7_
FNDA:0,_ZN7testing8internal19FormatForComparisonINSt7__cxx1112basic_stringIcSt11char_traitsIcESaIcEEEA23_cE6FormatERKS7_
FNDA:0,_ZN7testing8internal19FormatForComparisonINSt7__cxx1112basic_stringIcSt11char_traitsIcESaIcEEEA2_cE6FormatERKS7_
FNDA:0,_ZN7testing8internal19FormatForComparisonINSt7__cxx1112basic_stringIcSt11char_traitsIcESaIcEEEA30_cE6FormatERKS7_
FNDA:0,_ZN7testing8internal19FormatForComparisonINSt7__cxx1112basic_stringIcSt11char_traitsIcESaIcEEEA34_cE6FormatERKS7_
FNDA:0,_ZN7testing8internal19FormatForComparisonINSt7__cxx1112basic_stringIcSt11char_traitsIcESaIcEEEA35_cE6FormatERKS7_
FNDA:0,_ZN7testing8internal19FormatForComparisonINSt7__cxx1112basic_stringIcSt11char_traitsIcESaIcEEEA4_cE6FormatERKS7_
FNDA:0,_ZN7testing8internal19FormatForComparisonINSt7__cxx1112basic_stringIcSt11char_traitsIcESaIcEEEA5_cE6FormatERKS7_
FNDA:0,_ZN7testing8internal19FormatForComparisonINSt7__cxx1112basic_stringIcSt11char_traitsIcESaIcEEEA6_cE6FormatERKS7_
FNDA:0,_ZN7testing8internal19FormatForComparisonINSt7__cxx1112basic_stringIcSt11char_traitsIcESaIcEEEA7_cE6FormatERKS7_
FNDA:0,_ZN7testing8internal19FormatForComparisonINSt7__cxx1112basic_stringIcSt11char_traitsIcESaIcEEEA9_cE6FormatERKS7_
FNDA:0,_ZN7testing8internal19FormatForComparisonINSt7__cxx1112basic_stringIcSt11char_traitsIcESaIcEEES7_E6FormatERKS7_
FNDA:0,_ZN7testing8internal19FormatForComparisonIPN5ListD4NodeEDnE6FormatB5cxx11ERKS4_
FNDA:0,_ZN7testing8internal19FormatForComparisonIPN5ListS4NodeEDnE6FormatB5cxx11ERKS4_
FNDA:0,_ZN7testing8internal19FormatForComparisonIPN5Queue4NodeEDnE6FormatB5cxx11ERKS4_
FNDA:0,_ZN7testing8internal19FormatForComparisonIPN5Stack4NodeEDnE6FormatB5cxx11ERKS4_
FNDA:0,_ZN7testing8internal19FormatForComparisonIiiE6FormatB5cxx11ERKi
FNDA:0,_ZN7testing8internal19FormatForComparisonIimE6FormatB5cxx11ERKi
FNDA:0,_ZN7testing8internal19FormatForComparisonImiE6FormatB5cxx11ERKm
FNDA:0,_ZN7testing8internal19FormatForComparisonImmE6FormatB5cxx11ERKm
FNDA:0,_ZN7testing8internal19FormatForComparisonIA11_cNSt7__cxx1112basic_stringIcSt11char_traitsIcESaIcEEEE6FormatEPKc
FNDA:0,_ZN7testing8internal19FormatForComparisonIA14_cNSt7__cxx1112basic_stringIcSt11char_traitsIcESaIcEEEE6FormatEPKc
FNDA:0,_ZN7testing8internal19FormatForComparisonIA1_cNSt7__cxx1112basic_stringIcSt11char_traitsIcESaIcEEEE6FormatEPKc
FNDA:0,_ZN7testing8internal19FormatForComparisonIA21_cNSt7__cxx1112basic_stringIcSt11char_traitsIcESaIcEEEE6FormatEPKc
FNDA:0,_ZN7testing8internal19FormatForComparisonIA23_cNSt7__cxx1112basic_stringIcSt11char_traitsIcESaIcEEEE6FormatEPKc
FNDA:0,_ZN7testing8internal19FormatForComparisonIA2_cNSt7__cxx1112basic_stringIcSt11char_traitsIcESaIcEEEE6FormatEPKc
FNDA:0,_ZN7testing8internal19FormatForComparisonIA30_cNSt7__cxx1112basic_stringIcSt11char_traitsIcESaIcEEEE6FormatEPKc
FNDA:0,_ZN7testing8internal19FormatForComparisonIA34_cNSt7__cxx1112basic_stringIcSt11char_traitsIcESaIcEEEE6FormatEPKc
FNDA:0,_ZN7testing8internal19FormatForComparisonIA35_cNSt7__cxx1112basic_stringIcSt11char_traitsIcESaIcEEEE6FormatEPKc
FNDA:0,_ZN7testing8internal19FormatForComparisonIA4_cNSt7__cxx1112basic_stringIcSt11char_traitsIcESaIcEEEE6FormatEPKc
FNDA:0,_ZN7testing8internal19FormatForComparisonIA5_cNSt7__cxx1112basic_stringIcSt11char_traitsIcESaIcEEEE6FormatEPKc
FNDA:0,_ZN7testing8internal19FormatForComparisonIA6_cNSt7__cxx1112basic_stringIcSt11char_traitsIcESaIcEEEE6FormatEPKc
FNDA:0,_ZN7testing8internal19FormatForComparisonIA7_cNSt7__cxx1112basic_stringIcSt11char_traitsIcESaIcEEEE6FormatEPKc
FNDA:0,_ZN7testing8internal19FormatForComparisonIA9_cNSt7__cxx1112basic_stringIcSt11char_traitsIcESaIcEEEE6FormatEPKc
FNDA:0,_ZN7testing8internal19FormatForComparisonIPKcNSt7__cxx1112basic_stringIcSt11char_traitsIcESaIcEEEE6FormatES3_
FNDA:0,_ZN7testing8internal33FormatForComparisonFailureMessageIA11_cNSt7__cxx1112basic_stringIcSt11char_traitsIcESaIcEEEEES8_RKT_RKT0_
FNDA:0,_ZN7testing8internal33FormatForComparisonFailureMessageIA14_cNSt7__cxx1112basic_stringIcSt11char_traitsIcESaIcEEEEES8_RKT_RKT0_
FNDA:0,_ZN7testing8internal33FormatForComparisonFailureMessageIA1_cNSt7__cxx1112basic_stringIcSt11char_traitsIcESaIcEEEEES8_RKT_RKT0_
FNDA:0,_ZN7testing8internal33FormatForComparisonFailureMessageIA21_cNSt7__cxx1112basic_stringIcSt11char_traitsIcESaIcEEEEES8_RKT_RKT0_
FNDA:0,_ZN7testing8internal33FormatForComparisonFailureMessageIA23_cNSt7__cxx1112basic_stringIcSt11char_traitsIcESaIcEEEEES8_RKT_RKT0_
FNDA:0,_ZN7testing8internal33FormatForComparisonFailureMessageIA2_cNSt7__cxx1112basic_stringIcSt11char_traitsIcESaIcEEEEES8_RKT_RKT0_
FNDA:0,_ZN7testing8internal33FormatForComparisonFailureMessageIA30_cNSt7__cxx1112basic_stringIcSt11char_traitsIcESaIcEEEEES8_RKT_RKT0_
FNDA:0,_ZN7testing8internal33FormatForComparisonFailureMessageIA34_cNSt7__cxx1112basic_stringIcSt11char_traitsIcESaIcEEEEES8_RKT_RKT0_
FNDA:0,_ZN7testing8internal33FormatForComparisonFailureMessageIA35_cNSt7__cxx1112basic_stringIcSt11char_traitsIcESaIcEEEEES8_RKT_RKT0_
FNDA:0,_ZN7testing8internal33FormatForComparisonFailureMessageIA4_cNSt7__cxx1112basic_stringIcSt11char_traitsIcESaIcEEEEES8_RKT_RKT0_
FNDA:0,_ZN7testing8internal33FormatForComparisonFailureMessageIA5_cNSt7__cxx1112basic_stringIcSt11char_traitsIcESaIcEEEEES8_RKT_RKT0_
FNDA:0,_ZN7testing8internal33FormatForComparisonFailureMessageIA6_cNSt7__cxx1112basic_stringIcSt11char_traitsIcESaIcEEEEES8_RKT_RKT0_
FNDA:0,_ZN7testing8internal33FormatForComparisonFailureMessageIA7_cNSt7__cxx1112basic_stringIcSt11char_traitsIcESaIcEEEEES8_RKT_RKT0_
FNDA:0,_ZN7testing8internal33FormatForComparisonFailureMessageIA9_cNSt7__cxx1112basic_stringIcSt11char_traitsIcESaIcEEEEES8_RKT_RKT0_
FNDA:0,_ZN7testing8internal33FormatForComparisonFailureMessageIDnPN5ListD4NodeEEENSt7__cxx1112basic_stringIcSt11char_traitsIcESaIcEEERKT_RKT0_
FNDA:0,_ZN7testing8internal33FormatForComparisonFailureMessageIDnPN5ListS4NodeEEENSt7__cxx1112basic_stringIcSt11char_traitsIcESaIcEEERKT_RKT0_
FNDA:0,_ZN7testing8internal33FormatForComparisonFailureMessageIDnPN5Queue4NodeEEENSt7__cxx1112basic_stringIcSt11char_traitsIcESaIcEEERKT_RKT0_
FNDA:0,_ZN7testing8internal33FormatForComparisonFailureMessageIDnPN5Stack4NodeEEENSt7__cxx1112basic_stringIcSt11char_traitsIcESaIcEEERKT_RKT0_
FNDA:0,_ZN7testing8internal33FormatForComparisonFailureMessageINSt7__cxx1112basic_stringIcSt11char_traitsIcESaIcEEEA11_cEES7_RKT_RKT0_
FNDA:0,_ZN7testing8internal33FormatForComparisonFailureMessageINSt7__cxx1112basic_stringIcSt11char_traitsIcESaIcEEEA14_cEES7_RKT_RKT0_
FNDA:0,_ZN7testing8internal33FormatForComparisonFailureMessageINSt7__cxx1112basic_stringIcSt11char_traitsIcESaIcEEEA1_cEES7_RKT_RKT0_
FNDA:0,_ZN7testing8internal33FormatForComparisonFailureMessageINSt7__cxx1112basic_stringIcSt11char_traitsIcESaIcEEEA21_cEES7_RKT_RKT0_
FNDA:0,_ZN7testing8internal33FormatForComparisonFailureMessageINSt7__cxx1112basic_stringIcSt11char_traitsIcESaIcEEEA23_cEES7_RKT_RKT0_
FNDA:0,_ZN7testing8internal33FormatForComparisonFailureMessageINSt7__cxx1112basic_stringIcSt11char_traitsIcESaIcEEEA2_cEES7_RKT_RKT0_
FNDA:0,_ZN7testing8internal33FormatForComparisonFailureMessageINSt7__cxx1112basic_stringIcSt11char_traitsIcESaIcEEEA30_cEES7_RKT_RKT0_
FNDA:0,_ZN7testing8internal33FormatForComparisonFailureMessageINSt7__cxx1112basic_stringIcSt11char_traitsIcESaIcEEEA34_cEES7_RKT_RKT0_
FNDA:0,_ZN7testing8internal33FormatForComparisonFailureMessageINSt7__cxx1112basic_stringIcSt11char_traitsIcESaIcEEEA35_cEES7_RKT_RKT0_
FNDA:0,_ZN7testing8internal33FormatForComparisonFailureMessageINSt7__cxx1112basic_stringIcSt11char_traitsIcESaIcEEEA4_cEES7_RKT_RKT0_
FNDA:0,_ZN7testing8internal33FormatForComparisonFailureMessageINSt7__cxx1112basic_stringIcSt11char_traitsIcESaIcEEEA5_cEES7_RKT_RKT0_
FNDA:0,_ZN7testing8internal33FormatForComparisonFailureMessageINSt7__cxx1112basic_stringIcSt11char_traitsIcESaIcEEEA6_cEES7_RKT_RKT0_
FNDA:0,_ZN7testing8internal33FormatForComparisonFailureMessageINSt7__cxx1112basic_stringIcSt11char_traitsIcESaIcEEEA7_cEES7_RKT_RKT0_
FNDA:0,_ZN7testing8internal33FormatForComparisonFailureMessageINSt7__cxx1112basic_stringIcSt11char_traitsIcESaIcEEEA9_cEES7_RKT_RKT0_
FNDA:0,_ZN7testing8internal33FormatForComparisonFailureMessageINSt7__cxx1112basic_stringIcSt11char_traitsIcESaIcEEES7_EES7_RKT_RKT0_
FNDA:0,_ZN7testing8internal33FormatForComparisonFailureMessageIPN5ListD4NodeEDnEENSt7__cxx1112basic_stringIcSt11char_traitsIcESaIcEEERKT_RKT0_
FNDA:0,_ZN7testing8internal33FormatForComparisonFailureMessageIPN5ListS4NodeEDnEENSt7__cxx1112basic_stringIcSt11char_traitsIcESaIcEEERKT_RKT0_
FNDA:0,_ZN7testing8internal33FormatForComparisonFailureMessageIPN5Queue4NodeEDnEENSt7__cxx1112basic_stringIcSt11char_traitsIcESaIcEEERKT_RKT0_
FNDA:0,_ZN7testing8internal33FormatForComparisonFailureMessageIPN5Stack4NodeEDnEENSt7__cxx1112basic_stringIcSt11char_traitsIcESaIcEEERKT_RKT0_
FNDA:0,_ZN7testing8internal33FormatForComparisonFailureMessageIiiEENSt7__cxx1112basic_stringIcSt11char_traitsIcESaIcEEERKT_RKT0_
FNDA:0,_ZN7testing8internal33FormatForComparisonFailureMessageIimEENSt7__cxx1112basic_stringIcSt11char_traitsIcESaIcEEERKT_RKT0_
FNDA:0,_ZN7testing8internal33FormatForComparisonFailureMessageImiEENSt7__cxx1112basic_stringIcSt11char_traitsIcESaIcEEERKT_RKT0_
FNDA:0,_ZN7testing8internal33FormatForComparisonFailureMessageImmEENSt7__cxx1112basic_stringIcSt11char_traitsIcESaIcEEERKT_RKT0_
FNDA:0,_ZN7testing8internal7PrintToIPN5ListD4NodeEEEvRKT_PSo
FNDA:0,_ZN7testing8internal7PrintToIPN5ListS4NodeEEEvRKT_PSo
FNDA:0,_ZN7testing8internal7PrintToIPN5Queue4NodeEEEvRKT_PSo
FNDA:0,_ZN7testing8internal7PrintToIPN5Stack4NodeEEEvRKT_PSo
FNDA:0,_ZN7testing8internal7PrintToIiEEvRKT_PSo
FNDA:0,_ZN7testing8internal7PrintToImEEvRKT_PSo
FNDA:0,_ZN7testing8internal7PrintToERKNSt7__cxx1112basic_stringIcSt11char_traitsIcESaIcEEEPSo
FNDA:0,_ZN7testing8internal7PrintToEDnPSo
FNDA:0,_ZN7testing8internal16UniversalPrinterIDnE5PrintERKDnPSo
FNDA:0,_ZN7testing8internal16UniversalPrinterINSt7__cxx1112basic_stringIcSt11char_traitsIcESaIcEEEE5PrintERKS7_PSo
FNDA:0,_ZN7testing8internal16UniversalPrinterIPN5ListD4NodeEE5PrintERKS4_PSo
FNDA:0,_ZN7testing8internal16UniversalPrinterIPN5ListS4NodeEE5PrintERKS4_PSo
FNDA:0,_ZN7testing8internal16UniversalPrinterIPN5Queue4NodeEE5PrintERKS4_PSo
FNDA:0,_ZN7testing8internal16UniversalPrinterIPN5Stack4NodeEE5PrintERKS4_PSo
FNDA:0,_ZN7testing8internal16UniversalPrinterIiE5PrintERKiPSo
FNDA:0,_ZN7testing8internal16UniversalPrinterImE5PrintERKmPSo
FNDA:0,_ZN7testing8internal21UniversalTersePrinterIDnE5PrintERKDnPSo
FNDA:0,_ZN7testing8internal21UniversalTersePrinterINSt7__cxx1112basic_stringIcSt11char_traitsIcESaIcEEEE5PrintERKS7_PSo
FNDA:0,_ZN7testing8internal21UniversalTersePrinterIPN5ListD4NodeEE5PrintERKS4_PSo
FNDA:0,_ZN7testing8internal21UniversalTersePrinterIPN5ListS4NodeEE5PrintERKS4_PSo
FNDA:0,_ZN7testing8internal21UniversalTersePrinterIPN5Queue4NodeEE5PrintERKS4_PSo
FNDA:0,_ZN7testing8internal21UniversalTersePrinterIPN5Stack4NodeEE5PrintERKS4_PSo
FNDA:0,_ZN7testing8internal21UniversalTersePrinterIiE5PrintERKiPSo
FNDA:0,_ZN7testing8internal21UniversalTersePrinterImE5PrintERKmPSo
FNF:137
FNH:0
DA:190,0
DA:191,0
DA:192,0
DA:197,0
DA:199,0
DA:221,0
DA:225,0
DA:226,0
DA:326,0
DA:336,0
DA:337,0
DA:357,0
DA:358,0
DA:366,0
DA:367,0
DA:411,0
DA:437,0
DA:439,0
DA:464,0
DA:465,0
DA:466,0
DA:660,0
DA:661,0
DA:662,0
DA:699,0
DA:799,0
DA:808,0
DA:809,0
DA:989,0
DA:990,0
DA:991,0
DA:1017,0
DA:1018,0
DA:1019,0
DA:1021,0
DA:1023,0
DA:1108,0
DA:1112,0
DA:1113,0
DA:1148,0
DA:1149,0
DA:1150,0
DA:1151,0
DA:1152,0
LF:44
LH:0
end_of_record
TN:
SF:/usr/include/gtest/gtest.h
FN:1359,1365,_ZN7testing8internal18CmpHelperEQFailureINSt7__cxx1112basic_stringIcSt11char_traitsIcESaIcEEEA11_cEENS_15AssertionResultEPKcSB_RKT_RKT0_
FN:1359,1365,_ZN7testing8internal18CmpHelperEQFailureINSt7__cxx1112basic_stringIcSt11char_traitsIcESaIcEEEA14_cEENS_15AssertionResultEPKcSB_RKT_RKT0_
FN:1359,1365,_ZN7testing8internal18CmpHelperEQFailureINSt7__cxx1112basic_stringIcSt11char_traitsIcESaIcEEEA21_cEENS_15AssertionResultEPKcSB_RKT_RKT0_
FN:1359,1365,_ZN7testing8internal18CmpHelperEQFailureINSt7__cxx1112basic_stringIcSt11char_traitsIcESaIcEEEA23_cEENS_15AssertionResultEPKcSB_RKT_RKT0_
FN:1359,1365,_ZN7testing8internal18CmpHelperEQFailureINSt7__cxx1112basic_stringIcSt11char_traitsIcESaIcEEEA2_cEENS_15AssertionResultEPKcSB_RKT_RKT0_
FN:1359,1365,_ZN7testing8internal18CmpHelperEQFailureINSt7__cxx1112basic_stringIcSt11char_traitsIcESaIcEEEA30_cEENS_15AssertionResultEPKcSB_RKT_RKT0_
FN:1359,1365,_ZN7testing8internal18CmpHelperEQFailureINSt7__cxx1112basic_stringIcSt11char_traitsIcESaIcEEEA34_cEENS_15AssertionResultEPKcSB_RKT_RKT0_
FN:1359,1365,_ZN7testing8internal18CmpHelperEQFailureINSt7__cxx1112basic_stringIcSt11char_traitsIcESaIcEEEA35_cEENS_15AssertionResultEPKcSB_RKT_RKT0_
FN:1359,1365,_ZN7testing8internal18CmpHelperEQFailureINSt7__cxx1112basic_stringIcSt11char_traitsIcESaIcEEEA4_cEENS_15AssertionResultEPKcSB_RKT_RKT0_
FN:1359,1365,_ZN7testing8internal18CmpHelperEQFailureINSt7__cxx1112basic_stringIcSt11char_traitsIcESaIcEEEA5_cEENS_15AssertionResultEPKcSB_RKT_RKT0_
FN:1359,1365,_ZN7testing8internal18CmpHelperEQFailureINSt7__cxx1112basic_stringIcSt11char_traitsIcESaIcEEEA6_cEENS_15AssertionResultEPKcSB_RKT_RKT0_
FN:1359,1365,_ZN7testing8internal18CmpHelperEQFailureINSt7__cxx1112basic_stringIcSt11char_traitsIcESaIcEEEA7_cEENS_15AssertionResultEPKcSB_RKT_RKT0_
FN:1359,1365,_ZN7testing8internal18CmpHelperEQFailureINSt7__cxx1112basic_stringIcSt11char_traitsIcESaIcEEEA9_cEENS_15AssertionResultEPKcSB_RKT_RKT0_
FN:1359,1365,_ZN7testing8internal18CmpHelperEQFailureINSt7__cxx1112basic_stringIcSt11char_traitsIcESaIcEEES7_EENS_15AssertionResultEPKcSA_RKT_RKT0_
FN:1359,1365,_ZN7testing8internal18CmpHelperEQFailureIPN5ListD4NodeEDnEENS_15AssertionResultEPKcS7_RKT_RKT0_
FN:1359,1365,_ZN7testing8internal18CmpHelperEQFailureIPN5ListS4NodeEDnEENS_15AssertionResultEPKcS7_RKT_RKT0_
FN:1359,1365,_ZN7testing8internal18CmpHelperEQFailureIPN5Queue4NodeEDnEENS_15AssertionResultEPKcS7_RKT_RKT0_
FN:1359,1365,_ZN7testing8internal18CmpHelperEQFailureIPN5Stack4NodeEDnEENS_15AssertionResultEPKcS7_RKT_RKT0_
FN:1359,1365,_ZN7testing8internal18CmpHelperEQFailureIiiEENS_15AssertionResultEPKcS4_RKT_RKT0_
FN:1359,1365,_ZN7testing8internal18CmpHelperEQFailureImiEENS_15AssertionResultEPKcS4_RKT_RKT0_
FN:1359,1365,_ZN7testing8internal18CmpHelperEQFailureImmEENS_15AssertionResultEPKcS4_RKT_RKT0_
FN:1376,1384,_ZN7testing8internal11CmpHelperEQINSt7__cxx1112basic_stringIcSt11char_traitsIcESaIcEEEA11_cEENS_15AssertionResultEPKcSB_RKT_RKT0_
FN:1376,1384,_ZN7testing8internal11CmpHelperEQINSt7__cxx1112basic_stringIcSt11char_traitsIcESaIcEEEA14_cEENS_15AssertionResultEPKcSB_RKT_RKT0_
FN:1376,1384,_ZN7testing8internal11CmpHelperEQINSt7__cxx1112basic_stringIcSt11char_traitsIcESaIcEEEA21_cEENS_15AssertionResultEPKcSB_RKT_RKT0_
FN:1376,1384,_ZN7testing8internal11CmpHelperEQINSt7__cxx1112basic_stringIcSt11char_traitsIcESaIcEEEA23_cEENS_15AssertionResultEPKcSB_RKT_RKT0_
FN:1376,1384,_ZN7testing8internal11CmpHelperEQINSt7__cxx1112basic_stringIcSt11char_traitsIcESaIcEEEA2_cEENS_15AssertionResultEPKcSB_RKT_RKT0_
FN:1376,1384,_ZN7testing8internal11CmpHelperEQINSt7__cxx1112basic_stringIcSt11char_traitsIcESaIcEEEA30_cEENS_15AssertionResultEPKcSB_RKT_RKT0_
FN:1376,1384,_ZN7testing8internal11CmpHelperEQINSt7__cxx1112basic_stringIcSt11char_traitsIcESaIcEEEA34_cEENS_15AssertionResultEPKcSB_RKT_RKT0_
FN:1376,1384,_ZN7testing8internal11CmpHelperEQINSt7__cxx1112basic_stringIcSt11char_traitsIcESaIcEEEA35_cEENS_15AssertionResultEPKcSB_RKT_RKT0_
FN:1376,1384,_ZN7testing8internal11CmpHelperEQINSt7__cxx1112basic_stringIcSt11char_traitsIcESaIcEEEA4_cEENS_15AssertionResultEPKcSB_RKT_RKT0_
FN:1376,1384,_ZN7testing8internal11CmpHelperEQINSt7__cxx1112basic_stringIcSt11char_traitsIcESaIcEEEA5_cEENS_15AssertionResultEPKcSB_RKT_RKT0_
FN:1376,1384,_ZN7testing8internal11CmpHelperEQINSt7__cxx1112basic_stringIcSt11char_traitsIcESaIcEEEA6_cEENS_15AssertionResultEPKcSB_RKT_RKT0_
FN:1376,1384,_ZN7testing8internal11CmpHelperEQINSt7__cxx1112basic_stringIcSt11char_traitsIcESaIcEEEA7_cEENS_15AssertionResultEPKcSB_RKT_RKT0_
FN:1376,1384,_ZN7testing8internal11CmpHelperEQINSt7__cxx1112basic_stringIcSt11char_traitsIcESaIcEEEA9_cEENS_15AssertionResultEPKcSB_RKT_RKT0_
FN:1376,1384,_ZN7testing8internal11CmpHelperEQINSt7__cxx1112basic_stringIcSt11char_traitsIcESaIcEEES7_EENS_15AssertionResultEPKcSA_RKT_RKT0_
FN:1376,1384,_ZN7testing8internal11CmpHelperEQIPN5ListD4NodeEDnEENS_15AssertionResultEPKcS7_RKT_RKT0_
FN:1376,1384,_ZN7testing8internal11CmpHelperEQIPN5ListS4NodeEDnEENS_15AssertionResultEPKcS7_RKT_RKT0_
FN:1376,1384,_ZN7testing8internal11CmpHelperEQIPN5Queue4NodeEDnEENS_15AssertionResultEPKcS7_RKT_RKT0_
FN:1376,1384,_ZN7testing8internal11CmpHelperEQIPN5Stack4NodeEDnEENS_15AssertionResultEPKcS7_RKT_RKT0_
FN:1376,1384,_ZN7testing8internal11CmpHelperEQIiiEENS_15AssertionResultEPKcS4_RKT_RKT0_
FN:1376,1384,_ZN7testing8internal11CmpHelperEQImiEENS_15AssertionResultEPKcS4_RKT_RKT0_
FN:1376,1384,_ZN7testing8internal11CmpHelperEQImmEENS_15AssertionResultEPKcS4_RKT_RKT0_
FN:1395,1399,_ZN7testing8internal8EqHelper7CompareINSt7__cxx1112basic_stringIcSt11char_traitsIcESaIcEEEA11_cLPv0EEENS_15AssertionResultEPKcSD_RKT_RKT0_
FN:1395,1399,_ZN7testing8internal8EqHelper7CompareINSt7__cxx1112basic_stringIcSt11char_traitsIcESaIcEEEA14_cLPv0EEENS_15AssertionResultEPKcSD_RKT_RKT0_
FN:1395,1399,_ZN7testing8internal8EqHelper7CompareINSt7__cxx1112basic_stringIcSt11char_traitsIcESaIcEEEA21_cLPv0EEENS_15AssertionResultEPKcSD_RKT_RKT0_
FN:1395,1399,_ZN7testing8internal8EqHelper7CompareINSt7__cxx1112basic_stringIcSt11char_traitsIcESaIcEEEA23_cLPv0EEENS_15AssertionResultEPKcSD_RKT_RKT0_
FN:1395,1399,_ZN7testing8internal8EqHelper7CompareINSt7__cxx1112basic_stringIcSt11char_traitsIcESaIcEEEA2_cLPv0EEENS_15AssertionResultEPKcSD_RKT_RKT0_
FN:1395,1399,_ZN7testing8internal8EqHelper7CompareINSt7__cxx1112basic_stringIcSt11char_traitsIcESaIcEEEA30_cLPv0EEENS_15AssertionResultEPKcSD_RKT_RKT0_
FN:1395,1399,_ZN7testing8internal8EqHelper7CompareINSt7__cxx1112basic_stringIcSt11char_traitsIcESaIcEEEA34_cLPv0EEENS_15AssertionResultEPKcSD_RKT_RKT0_
FN:1395,1399,_ZN7testing8internal8EqHelper7CompareINSt7__cxx1112basic_stringIcSt11char_traitsIcESaIcEEEA35_cLPv0EEENS_15AssertionResultEPKcSD_RKT_RKT0_
FN:1395,1399,_ZN7testing8internal8EqHelper7CompareINSt7__cxx1112basic_stringIcSt11char_traitsIcESaIcEEEA4_cLPv0EEENS_15AssertionResultEPKcSD_RKT_RKT0_
FN:1395,1399,_ZN7testing8internal8EqHelper7CompareINSt7__cxx1112basic_stringIcSt11char_traitsIcESaIcEEEA5_cLPv0EEENS_15AssertionResultEPKcSD_RKT_RKT0_
FN:1395,1399,_ZN7testing8internal8EqHelper7CompareINSt7__cxx1112basic_stringIcSt11char_traitsIcESaIcEEEA6_cLPv0EEENS_15AssertionResultEPKcSD_RKT_RKT0_
FN:1395,1399,_ZN7testing8internal8EqHelper7CompareINSt7__cxx1112basic_stringIcSt11char_traitsIcESaIcEEEA7_cLPv0EEENS_15AssertionResultEPKcSD_RKT_RKT0_
FN:1395,1399,_ZN7testing8internal8EqHelper7CompareINSt7__cxx1112basic_stringIcSt11char_traitsIcESaIcEEEA9_cLPv0EEENS_15AssertionResultEPKcSD_RKT_RKT0_
FN:1395,1399,_ZN7testing8internal8EqHelper7CompareINSt7__cxx1112basic_stringIcSt11char_traitsIcESaIcEEES8_LPv0EEENS_15AssertionResultEPKcSC_RKT_RKT0_
FN:1395,1399,_ZN7testing8internal8EqHelper7CompareIPN5ListD4NodeEDnLPv0EEENS_15AssertionResultEPKcS9_RKT_RKT0_
FN:1395,1399,_ZN7testing8internal8EqHelper7CompareIPN5ListS4NodeEDnLPv0EEENS_15AssertionResultEPKcS9_RKT_RKT0_
FN:1395,1399,_ZN7testing8internal8EqHelper7CompareIPN5Queue4NodeEDnLPv0EEENS_15AssertionResultEPKcS9_RKT_RKT0_
FN:1395,1399,_ZN7testing8internal8EqHelper7CompareIPN5Stack4NodeEDnLPv0EEENS_15AssertionResultEPKcS9_RKT_RKT0_
FN:1395,1399,_ZN7testing8internal8EqHelper7CompareIiiLPv0EEENS_15AssertionResultEPKcS6_RKT_RKT0_
FN:1395,1399,_ZN7testing8internal8EqHelper7CompareImiLPv0EEENS_15AssertionResultEPKcS6_RKT_RKT0_
FN:1395,1399,_ZN7testing8internal8EqHelper7CompareImmLPv0EEENS_15AssertionResultEPKcS6_RKT_RKT0_
FN:1428,1435,_ZN7testing8internal18CmpHelperOpFailureINSt7__cxx1112basic_stringIcSt11char_traitsIcESaIcEEEA1_cEENS_15AssertionResultEPKcSB_RKT_RKT0_SB_
FN:1428,1435,_ZN7testing8internal18CmpHelperOpFailureIPN5ListD4NodeEDnEENS_15AssertionResultEPKcS7_RKT_RKT0_S7_
FN:1428,1435,_ZN7testing8internal18CmpHelperOpFailureIPN5ListS4NodeEDnEENS_15AssertionResultEPKcS7_RKT_RKT0_S7_
FN:1428,1435,_ZN7testing8internal18CmpHelperOpFailureIPN5Queue4NodeEDnEENS_15AssertionResultEPKcS7_RKT_RKT0_S7_
FN:1428,1435,_ZN7testing8internal18CmpHelperOpFailureIPN5Stack4NodeEDnEENS_15AssertionResultEPKcS7_RKT_RKT0_S7_
FN:1457,1457,_ZN7testing8internal11CmpHelperNEINSt7__cxx1112basic_stringIcSt11char_traitsIcESaIcEEEA1_cEENS_15AssertionResultEPKcSB_RKT_RKT0_
FN:1457,1457,_ZN7testing8internal11CmpHelperNEIPN5ListD4NodeEDnEENS_15AssertionResultEPKcS7_RKT_RKT0_
FN:1457,1457,_ZN7testing8internal11CmpHelperNEIPN5ListS4NodeEDnEENS_15AssertionResultEPKcS7_RKT_RKT0_
FN:1457,1457,_ZN7testing8internal11CmpHelperNEIPN5Queue4NodeEDnEENS_15AssertionResultEPKcS7_RKT_RKT0_
FN:1457,1457,_ZN7testing8internal11CmpHelperNEIPN5Stack4NodeEDnEENS_15AssertionResultEPKcS7_RKT_RKT0_
FN:2317,2317,_Z13RUN_ALL_TESTSv
FN:256,256,_ZN7testing4Test14SetUpTestSuiteEv
FN:264,264,_ZN7testing4Test17TearDownTestSuiteEv
FN:269,269,_ZN7testing4Test16TearDownTestCaseEv
FN:270,270,_ZN7testing4Test13SetUpTestCaseEv
FN:357,357,_ZN7testing4Test5SetupEv
FNDA:0,_ZN7testing8internal18CmpHelperEQFailureINSt7__cxx1112basic_stringIcSt11char_traitsIcESaIcEEEA11_cEENS_15AssertionResultEPKcSB_RKT_RKT0_
FNDA:0,_ZN7testing8internal18CmpHelperEQFailureINSt7__cxx1112basic_stringIcSt11char_traitsIcESaIcEEEA14_cEENS_15AssertionResultEPKcSB_RKT_RKT0_
FNDA:0,_ZN7testing8internal18CmpHelperEQFailureINSt7__cxx1112basic_stringIcSt11char_traitsIcESaIcEEEA21_cEENS_15AssertionResultEPKcSB_RKT_RKT0_
FNDA:0,_ZN7testing8internal18CmpHelperEQFailureINSt7__cxx1112basic_stringIcSt11char_traitsIcESaIcEEEA23_cEENS_15AssertionResultEPKcSB_RKT_RKT0_
FNDA:0,_ZN7testing8internal18CmpHelperEQFailureINSt7__cxx1112basic_stringIcSt11char_traitsIcESaIcEEEA2_cEENS_15AssertionResultEPKcSB_RKT_RKT0_
FNDA:0,_ZN7testing8internal18CmpHelperEQFailureINSt7__cxx1112basic_stringIcSt11char_traitsIcESaIcEEEA30_cEENS_15AssertionResultEPKcSB_RKT_RKT0_
FNDA:0,_ZN7testing8internal18CmpHelperEQFailureINSt7__cxx1112basic_stringIcSt11char_traitsIcESaIcEEEA34_cEENS_15AssertionResultEPKcSB_RKT_RKT0_
FNDA:0,_ZN7testing8internal18CmpHelperEQFailureINSt7__cxx1112basic_stringIcSt11char_traitsIcESaIcEEEA35_cEENS_15AssertionResultEPKcSB_RKT_RKT0_
FNDA:0,_ZN7testing8internal18CmpHelperEQFailureINSt7__cxx1112basic_stringIcSt11char_traitsIcESaIcEEEA4_cEENS_15AssertionResultEPKcSB_RKT_RKT0_
FNDA:0,_ZN7testing8internal18CmpHelperEQFailureINSt7__cxx1112basic_stringIcSt11char_traitsIcESaIcEEEA5_cEENS_15AssertionResultEPKcSB_RKT_RKT0_
FNDA:0,_ZN7testing8internal18CmpHelperEQFailureINSt7__cxx1112basic_stringIcSt11char_traitsIcESaIcEEEA6_cEENS_15AssertionResultEPKcSB_RKT_RKT0_
FNDA:0,_ZN7testing8internal18CmpHelperEQFailureINSt7__cxx1112basic_stringIcSt11char_traitsIcESaIcEEEA7_cEENS_15AssertionResultEPKcSB_RKT_RKT0_
FNDA:0,_ZN7testing8internal18CmpHelperEQFailureINSt7__cxx1112basic_stringIcSt11char_traitsIcESaIcEEEA9_cEENS_15AssertionResultEPKcSB_RKT_RKT0_
FNDA:0,_ZN7testing8internal18CmpHelperEQFailureINSt7__cxx1112basic_stringIcSt11char_traitsIcESaIcEEES7_EENS_15AssertionResultEPKcSA_RKT_RKT0_
FNDA:0,_ZN7testing8internal18CmpHelperEQFailureIPN5ListD4NodeEDnEENS_15AssertionResultEPKcS7_RKT_RKT0_
FNDA:0,_ZN7testing8internal18CmpHelperEQFailureIPN5ListS4NodeEDnEENS_15AssertionResultEPKcS7_RKT_RKT0_
FNDA:0,_ZN7testing8internal18CmpHelperEQFailureIPN5Queue4NodeEDnEENS_15AssertionResultEPKcS7_RKT_RKT0_
FNDA:0,_ZN7testing8internal18CmpHelperEQFailureIPN5Stack4NodeEDnEENS_15AssertionResultEPKcS7_RKT_RKT0_
FNDA:0,_ZN7testing8internal18CmpHelperEQFailureIiiEENS_15AssertionResultEPKcS4_RKT_RKT0_
FNDA:0,_ZN7testing8internal18CmpHelperEQFailureImiEENS_15AssertionResultEPKcS4_RKT_RKT0_
FNDA:0,_ZN7testing8internal18CmpHelperEQFailureImmEENS_15AssertionResultEPKcS4_RKT_RKT0_
FNDA:5,_ZN7testing8internal11CmpHelperEQINSt7__cxx1112basic_stringIcSt11char_traitsIcESaIcEEEA11_cEENS_15AssertionResultEPKcSB_RKT_RKT0_
FNDA:1,_ZN7testing8internal11CmpHelperEQINSt7__cxx1112basic_stringIcSt11char_traitsIcESaIcEEEA14_cEENS_15AssertionResultEPKcSB_RKT_RKT0_
FNDA:4,_ZN7testing8internal11CmpHelperEQINSt7__cxx1112basic_stringIcSt11char_traitsIcESaIcEEEA21_cEENS_15AssertionResultEPKcSB_RKT_RKT0_
FNDA:2,_ZN7testing8internal11CmpHelperEQINSt7__cxx1112basic_stringIcSt11char_traitsIcESaIcEEEA23_cEENS_15AssertionResultEPKcSB_RKT_RKT0_
FNDA:1,_ZN7testing8internal11CmpHelperEQINSt7__cxx1112basic_stringIcSt11char_traitsIcESaIcEEEA2_cEENS_15AssertionResultEPKcSB_RKT_RKT0_
FNDA:2,_ZN7testing8internal11CmpHelperEQINSt7__cxx1112basic_stringIcSt11char_traitsIcESaIcEEEA30_cEENS_15AssertionResultEPKcSB_RKT_RKT0_
FNDA:1,_ZN7testing8internal11CmpHelperEQINSt7__cxx1112basic_stringIcSt11char_traitsIcESaIcEEEA34_cEENS_15AssertionResultEPKcSB_RKT_RKT0_
FNDA:1,_ZN7testing8internal11CmpHelperEQINSt7__cxx1112basic_stringIcSt11char_traitsIcESaIcEEEA35_cEENS_15AssertionResultEPKcSB_RKT_RKT0_
FNDA:7,_ZN7testing8internal11CmpHelperEQINSt7__cxx1112basic_stringIcSt11char_traitsIcESaIcEEEA4_cEENS_15AssertionResultEPKcSB_RKT_RKT0_
FNDA:2,_ZN7testing8internal11CmpHelperEQINSt7__cxx1112basic_stringIcSt11char_traitsIcESaIcEEEA5_cEENS_15AssertionResultEPKcSB_RKT_RKT0_
FNDA:7,_ZN7testing8internal11CmpHelperEQINSt7__cxx1112basic_stringIcSt11char_traitsIcESaIcEEEA6_cEENS_15AssertionResultEPKcSB_RKT_RKT0_
FNDA:53,_ZN7testing8internal11CmpHelperEQINSt7__cxx1112basic_stringIcSt11char_traitsIcESaIcEEEA7_cEENS_15AssertionResultEPKcSB_RKT_RKT0_
FNDA:2,_ZN7testing8internal11CmpHelperEQINSt7__cxx1112basic_stringIcSt11char_traitsIcESaIcEEEA9_cEENS_15AssertionResultEPKcSB_RKT_RKT0_
FNDA:1004,_ZN7testing8internal11CmpHelperEQINSt7__cxx1112basic_stringIcSt11char_traitsIcESaIcEEES7_EENS_15AssertionResultEPKcSA_RKT_RKT0_
FNDA:7,_ZN7testing8internal11CmpHelperEQIPN5ListD4NodeEDnEENS_15AssertionResultEPKcS7_RKT_RKT0_
FNDA:8,_ZN7testing8internal11CmpHelperEQIPN5ListS4NodeEDnEENS_15AssertionResultEPKcS7_RKT_RKT0_
FNDA:4,_ZN7testing8internal11CmpHelperEQIPN5Queue4NodeEDnEENS_15AssertionResultEPKcS7_RKT_RKT0_
FNDA:2,_ZN7testing8internal11CmpHelperEQIPN5Stack4NodeEDnEENS_15AssertionResultEPKcS7_RKT_RKT0_
FNDA:12,_ZN7testing8internal11CmpHelperEQIiiEENS_15AssertionResultEPKcS4_RKT_RKT0_
FNDA:9,_ZN7testing8internal11CmpHelperEQImiEENS_15AssertionResultEPKcS4_RKT_RKT0_
FNDA:3,_ZN7testing8internal11CmpHelperEQImmEENS_15AssertionResultEPKcS4_RKT_RKT0_
FNDA:5,_ZN7testing8internal8EqHelper7CompareINSt7__cxx1112basic_stringIcSt11char_traitsIcESaIcEEEA11_cLPv0EEENS_15AssertionResultEPKcSD_RKT_RKT0_
FNDA:1,_ZN7testing8internal8EqHelper7CompareINSt7__cxx1112basic_stringIcSt11char_traitsIcESaIcEEEA14_cLPv0EEENS_15AssertionResultEPKcSD_RKT_RKT0_
FNDA:4,_ZN7testing8internal8EqHelper7CompareINSt7__cxx1112basic_stringIcSt11char_traitsIcESaIcEEEA21_cLPv0EEENS_15AssertionResultEPKcSD_RKT_RKT0_
FNDA:2,_ZN7testing8internal8EqHelper7CompareINSt7__cxx1112basic_stringIcSt11char_traitsIcESaIcEEEA23_cLPv0EEENS_15AssertionResultEPKcSD_RKT_RKT0_
FNDA:1,_ZN7testing8internal8EqHelper7CompareINSt7__cxx1112basic_stringIcSt11char_traitsIcESaIcEEEA2_cLPv0EEENS_15AssertionResultEPKcSD_RKT_RKT0_
FNDA:2,_ZN7testing8internal8EqHelper7CompareINSt7__cxx1112basic_stringIcSt11char_traitsIcESaIcEEEA30_cLPv0EEENS_15AssertionResultEPKcSD_RKT_RKT0_
FNDA:1,_ZN7testing8internal8EqHelper7CompareINSt7__cxx1112basic_stringIcSt11char_traitsIcESaIcEEEA34_cLPv0EEENS_15AssertionResultEPKcSD_RKT_RKT0_
FNDA:1,_ZN7testing8internal8EqHelper7CompareINSt7__cxx1112basic_stringIcSt11char_traitsIcESaIcEEEA35_cLPv0EEENS_15AssertionResultEPKcSD_RKT_RKT0_
FNDA:7,_ZN7testing8internal8EqHelper7CompareINSt7__cxx1112basic_stringIcSt11char_traitsIcESaIcEEEA4_cLPv0EEENS_15AssertionResultEPKcSD_RKT_RKT0_
FNDA:2,_ZN7testing8internal8EqHelper7CompareINSt7__cxx1112basic_stringIcSt11char_traitsIcESaIcEEEA5_cLPv0EEENS_15AssertionResultEPKcSD_RKT_RKT0_
FNDA:7,_ZN7testing8internal8EqHelper7CompareINSt7__cxx1112basic_stringIcSt11char_traitsIcESaIcEEEA6_cLPv0EEENS_15AssertionResultEPKcSD_RKT_RKT0_
FNDA:53,_ZN7testing8internal8EqHelper7CompareINSt7__cxx1112basic_stringIcSt11char_traitsIcESaIcEEEA7_cLPv0EEENS_15AssertionResultEPKcSD_RKT_RKT0_
FNDA:2,_ZN7testing8internal8EqHelper7CompareINSt7__cxx1112basic_stringIcSt11char_traitsIcESaIcEEEA9_cLPv0EEENS_15AssertionResultEPKcSD_RKT_RKT0_
FNDA:1004,_ZN7testing8internal8EqHelper7CompareINSt7__cxx1112basic_stringIcSt11char_traitsIcESaIcEEES8_LPv0EEENS_15AssertionResultEPKcSC_RKT_RKT0_
FNDA:7,_ZN7testing8internal8EqHelper7CompareIPN5ListD4NodeEDnLPv0EEENS_15AssertionResultEPKcS9_RKT_RKT0_
FNDA:8,_ZN7testing8internal8EqHelper7CompareIPN5ListS4NodeEDnLPv0EEENS_15AssertionResultEPKcS9_RKT_RKT0_
FNDA:4,_ZN7testing8internal8EqHelper7CompareIPN5Queue4NodeEDnLPv0EEENS_15AssertionResultEPKcS9_RKT_RKT0_
FNDA:2,_ZN7testing8internal8EqHelper7CompareIPN5Stack4NodeEDnLPv0EEENS_15AssertionResultEPKcS9_RKT_RKT0_
FNDA:12,_ZN7testing8internal8EqHelper7CompareIiiLPv0EEENS_15AssertionResultEPKcS6_RKT_RKT0_
FNDA:9,_ZN7testing8internal8EqHelper7CompareImiLPv0EEENS_15AssertionResultEPKcS6_RKT_RKT0_
FNDA:3,_ZN7testing8internal8EqHelper7CompareImmLPv0EEENS_15AssertionResultEPKcS6_RKT_RKT0_
FNDA:0,_ZN7testing8internal18CmpHelperOpFailureINSt7__cxx1112basic_stringIcSt11char_traitsIcESaIcEEEA1_cEENS_15AssertionResultEPKcSB_RKT_RKT0_SB_
FNDA:0,_ZN7testing8internal18CmpHelperOpFailureIPN5ListD4NodeEDnEENS_15AssertionResultEPKcS7_RKT_RKT0_S7_
FNDA:0,_ZN7testing8internal18CmpHelperOpFailureIPN5ListS4NodeEDnEENS_15AssertionResultEPKcS7_RKT_RKT0_S7_
FNDA:0,_ZN7testing8internal18CmpHelperOpFailureIPN5Queue4NodeEDnEENS_15AssertionResultEPKcS7_RKT_RKT0_S7_
FNDA:0,_ZN7testing8internal18CmpHelperOpFailureIPN5Stack4NodeEDnEENS_15AssertionResultEPKcS7_RKT_RKT0_S7_
FNDA:1,_ZN7testing8internal11CmpHelperNEINSt7__cxx1112basic_stringIcSt11char_traitsIcESaIcEEEA1_cEENS_15AssertionResultEPKcSB_RKT_RKT0_
FNDA:3,_ZN7testing8internal11CmpHelperNEIPN5ListD4NodeEDnEENS_15AssertionResultEPKcS7_RKT_RKT0_
FNDA:2,_ZN7testing8internal11CmpHelperNEIPN5ListS4NodeEDnEENS_15AssertionResultEPKcS7_RKT_RKT0_
FNDA:2,_ZN7testing8internal11CmpHelperNEIPN5Queue4NodeEDnEENS_15AssertionResultEPKcS7_RKT_RKT0_
FNDA:1,_ZN7testing8internal11CmpHelperNEIPN5Stack4NodeEDnEENS_15AssertionResultEPKcS7_RKT_RKT0_
FNDA:1,_Z13RUN_ALL_TESTSv
FNDA:0,_ZN7testing4Test14SetUpTestSuiteEv
FNDA:0,_ZN7testing4Test17TearDownTestSuiteEv
FNDA:0,_ZN7testing4Test16TearDownTestCaseEv
FNDA:0,_ZN7testing4Test13SetUpTestCaseEv
FNDA:0,_ZN7testing4Test5SetupEv
FNF:79
FNH:48
DA:256,0
DA:264,0
DA:269,0
DA:270,0
DA:357,0
DA:1359,0
DA:1364,0
DA:1376,1137
DA:1379,1137
DA:1380,1137
DA:1383,0
DA:1395,1137
DA:1398,1137
DA:1428,0
DA:1432,0
DA:1433,0
DA:1434,0
DA:1457,9
DA:2317,1
LF:19
LH:7
end_of_record
TN:
SF:/usr/include/gtest/internal/gtest-internal.h
FN:438,438,_ZN7testing8internal15TestFactoryBaseD0Ev
FN:438,438,_ZN7testing8internal15TestFactoryBaseD2Ev
FN:445,445,_ZN7testing8internal15TestFactoryBaseC2Ev
FN:457,457,_ZN7testing8internal15TestFactoryImplI19QueueTest_Push_TestE10CreateTestEv
FN:457,457,_ZN7testing8internal15TestFactoryImplI19StackTest_Push_TestE10CreateTestEv
FN:457,457,_ZN7testing8internal15TestFactoryImplI21QueueTest_Delete_TestE10CreateTestEv
FN:457,457,_ZN7testing8internal15TestFactoryImplI21StackTest_Delete_TestE10CreateTestEv
FN:457,457,_ZN7testing8internal15TestFactoryImplI21StrArrayTest_Get_TestE10CreateTestEv
FN:457,457,_ZN7testing8internal15TestFactoryImplI22StrArrayTest_Push_TestE10CreateTestEv
FN:457,457,_ZN7testing8internal15TestFactoryImplI23AVLTreeTest_Remove_TestE10CreateTestEv
FN:457,457,_ZN7testing8internal15TestFactoryImplI23ListDTest_PushHead_TestE10CreateTestEv
FN:457,457,_ZN7testing8internal15TestFactoryImplI23ListDTest_PushTail_TestE10CreateTestEv
FN:457,457,_ZN7testing8internal15TestFactoryImplI23ListSTest_PushHead_TestE10CreateTestEv
FN:457,457,_ZN7testing8internal15TestFactoryImplI23ListSTest_PushTail_TestE10CreateTestEv
FN:457,457,_ZN7testing8internal15TestFactoryImplI23StrArrayTest_Pushi_TestE10CreateTestEv
FN:457,457,_ZN7testing8internal15TestFactoryImplI24ListDTest_PrintList_TestE10CreateTestEv
FN:457,457,_ZN7testing8internal15TestFactoryImplI24StrArrayTest_Delete_TestE10CreateTestEv
FN:457,457,_ZN7testing8internal15TestFactoryImplI24StrArrayTest_Resize_TestE10CreateTestEv
FN:457,457,_ZN7testing8internal15TestFactoryImplI25AVLTreeTest_FreeTree_TestE10CreateTestEv
FN:457,457,_ZN7testing8internal15TestFactoryImplI25ListDTest_CreateList_TestE10CreateTestEv
FN:457,457,_ZN7testing8internal15TestFactoryImplI25ListDTest_DeleteHead_TestE10CreateTestEv
FN:457,457,_ZN7testing8internal15TestFactoryImplI25ListDTest_DeleteTail_TestE10CreateTestEv
FN:457,457,_ZN7testing8internal15TestFactoryImplI25ListDTest_SaveToFile_TestE10CreateTestEv
FN:457,457,_ZN7testing8internal15TestFactoryImplI25ListSTest_CreateList_TestE10CreateTestEv
FN:457,457,_ZN7testing8internal15TestFactoryImplI25ListSTest_DeleteHead_TestE10CreateTestEv
FN:457,457,_ZN7testing8internal15TestFactoryImplI25ListSTest_DeleteTail_TestE10CreateTestEv
FN:457,457,_ZN7testing8internal15TestFactoryImplI25ListSTest_SaveToFile_TestE10CreateTestEv
FN:457,457,_ZN7testing8internal15TestFactoryImplI25QueueTest_SaveToFile_TestE10CreateTestEv
FN:457,457,_ZN7testing8internal15TestFactoryImplI25StackTest_SaveToFile_TestE10CreateTestEv
FN:457,457,_ZN7testing8internal15TestFactoryImplI25StrArrayTest_Replace_TestE10CreateTestEv
FN:457,457,_ZN7testing8internal15TestFactoryImplI26AVLTreeTest_ClearTree_TestE10CreateTestEv
FN:457,457,_ZN7testing8internal15TestFactoryImplI26AVLTreeTest_EmptyTree_TestE10CreateTestEv
FN:457,457,_ZN7testing8internal15TestFactoryImplI26AVLTreeTest_PrintTree_TestE10CreateTestEv
FN:457,457,_ZN7testing8internal15TestFactoryImplI26ListDTest_DeleteValue_TestE10CreateTestEv
FN:457,457,_ZN7testing8internal15TestFactoryImplI26QueueTest_CreateQueue_TestE10CreateTestEv
FN:457,457,_ZN7testing8internal15TestFactoryImplI26StackTest_CreateStack_TestE10CreateTestEv
FN:457,457,_ZN7testing8internal15TestFactoryImplI27ListDTest_LoadFromFile_TestE10CreateTestEv
FN:457,457,_ZN7testing8internal15TestFactoryImplI28AVLTreeTest_WriteToFile_TestE10CreateTestEv
FN:457,457,_ZN7testing8internal15TestFactoryImplI28ListSTest_DeltEmptyList_TestE10CreateTestEv
FN:457,457,_ZN7testing8internal15TestFactoryImplI28StrArrayTest_SaveToFile_TestE10CreateTestEv
FN:457,457,_ZN7testing8internal15TestFactoryImplI29AVLTreeTest_MinValueNode_TestE10CreateTestEv
FN:457,457,_ZN7testing8internal15TestFactoryImplI30HashTableTest_GetKeyFound_TestE10CreateTestEv
FN:457,457,_ZN7testing8internal15TestFactoryImplI30HashTableTest_PushSuccess_TestE10CreateTestEv
FN:457,457,_ZN7testing8internal15TestFactoryImplI30ListSTest_DelvHeadElement_TestE10CreateTestEv
FN:457,457,_ZN7testing8internal15TestFactoryImplI31ListDTest_SaveToBinaryFile_TestE10CreateTestEv
FN:457,457,_ZN7testing8internal15TestFactoryImplI32AVLTreeTest_InsertAndSearch_TestE10CreateTestEv
FN:457,457,_ZN7testing8internal15TestFactoryImplI32StrArrayTest_Initialization_TestE10CreateTestEv
FN:457,457,_ZN7testing8internal15TestFactoryImplI33AVLTreeTest_HeightAndBalance_TestE10CreateTestEv
FN:457,457,_ZN7testing8internal15TestFactoryImplI33AVLTreeTest_InsertDuplicates_TestE10CreateTestEv
FN:457,457,_ZN7testing8internal15TestFactoryImplI33HashTableTest_GetKeyNotFound_TestE10CreateTestEv
FN:457,457,_ZN7testing8internal15TestFactoryImplI33ListDTest_LoadFromBinaryFile_TestE10CreateTestEv
FN:457,457,_ZN7testing8internal15TestFactoryImplI34AVLTreeTest_RemoveNonExistent_TestE10CreateTestEv
FN:457,457,_ZN7testing8internal15TestFactoryImplI34HashTableTest_CreateHashTable_TestE10CreateTestEv
FN:457,457,_ZN7testing8internal15TestFactoryImplI34HashTableTest_PushExistingKey_TestE10CreateTestEv
FN:457,457,_ZN7testing8internal15TestFactoryImplI34ListSTest_DelvElementNotFound_TestE10CreateTestEv
FN:457,457,_ZN7testing8internal15TestFactoryImplI34StrArrayTest_PushiOutOfBounds_TestE10CreateTestEv
FN:457,457,_ZN7testing8internal15TestFactoryImplI35HashTableTest_DeleteKeySuccess_TestE10CreateTestEv
FN:457,457,_ZN7testing8internal15TestFactoryImplI35HashTableTest_SaveToBinaryFile_TestE10CreateTestEv
FN:457,457,_ZN7testing8internal15TestFactoryImplI36HashTableTest_DeleteKeyNotFound_TestE10CreateTestEv
FN:457,457,_ZN7testing8internal15TestFactoryImplI36ListSTest_DelhSingleElementList_TestE10CreateTestEv
FN:457,457,_ZN7testing8internal15TestFactoryImplI37AVLTreeTest_SerializeDeserialize_TestE10CreateTestEv
FN:457,457,_ZN7testing8internal15TestFactoryImplI37HashTableTest_LoadFromBinaryFile_TestE10CreateTestEv
FN:457,457,_ZN7testing8internal15TestFactoryImplI38HashTableTest_SaveAndLoadFromFile_TestE10CreateTestEv
FN:457,457,_ZN7testing8internal15TestFactoryImplI38StrArrayTest_SerializeDeserialize_TestE10CreateTestEv
FN:457,457,_ZN7testing8internal15TestFactoryImplI42HashTableTest_LargeNumberOfOperations_TestE10CreateTestEv
FN:457,457,_ZN7testing8internal15TestFactoryImplI43ListSTest_SerializationDeserialization_TestE10CreateTestEv
FN:457,457,_ZN7testing8internal15TestFactoryImplI43QueueTest_SerializationDeserialization_TestE10CreateTestEv
FN:457,457,_ZN7testing8internal15TestFactoryImplI43StackTest_SerializationDeserialization_TestE10CreateTestEv
FN:457,457,_ZN7testing8internal15TestFactoryImplI44AVLTreeTest_InsertRequiresRightRotation_TestE10CreateTestEv
FN:457,457,_ZN7testing8internal15TestFactoryImplI46AVLTreeTest_SerializeDeserializeEmptyTree_TestE10CreateTestEv
FN:457,457,_ZN7testing8internal15TestFactoryImplI48AVLTreeTest_InsertRequiresLeftRightRotation_TestE10CreateTestEv
FN:457,457,_ZN7testing8internal15TestFactoryImplI48AVLTreeTest_InsertRequiresRightLeftRotation_TestE10CreateTestEv
FN:457,457,_ZN7testing8internal15TestFactoryImplI54AVLTreeTest_SerializeDeserializeSingleElementTree_TestE10CreateTestEv
FN:478,479,_ZN7testing8internal12CodeLocationC2ERKNSt7__cxx1112basic_stringIcSt11char_traitsIcESaIcEEEi
FN:491,494,_ZN7testing8internal19GetNotDefaultOrNullEPFvvES2_
FN:506,525,_ZN7testing8internal16SuiteApiResolverINS_4TestEE19GetSetUpCaseOrSuiteEPKci
FN:527,546,_ZN7testing8internal16SuiteApiResolverINS_4TestEE22GetTearDownCaseOrSuiteEPKci
FNDA:0,_ZN7testing8internal15TestFactoryBaseD0Ev
FNDA:70,_ZN7testing8internal15TestFactoryBaseD2Ev
FNDA:70,_ZN7testing8internal15TestFactoryBaseC2Ev
FNDA:1,_ZN7testing8internal15TestFactoryImplI19QueueTest_Push_TestE10CreateTestEv
FNDA:1,_ZN7testing8internal15TestFactoryImplI19StackTest_Push_TestE10CreateTestEv
FNDA:1,_ZN7testing8internal15TestFactoryImplI21QueueTest_Delete_TestE10CreateTestEv
FNDA:1,_ZN7testing8internal15TestFactoryImplI21StackTest_Delete_TestE10CreateTestEv
FNDA:1,_ZN7testing8internal15TestFactoryImplI21StrArrayTest_Get_TestE10CreateTestEv
FNDA:1,_ZN7testing8internal15TestFactoryImplI22StrArrayTest_Push_TestE10CreateTestEv
FNDA:1,_ZN7testing8internal15TestFactoryImplI23AVLTreeTest_Remove_TestE10CreateTestEv
FNDA:1,_ZN7testing8internal15TestFactoryImplI23ListDTest_PushHead_TestE10CreateTestEv
FNDA:1,_ZN7testing8internal15TestFactoryImplI23ListDTest_PushTail_TestE10CreateTestEv
FNDA:1,_ZN7testing8internal15TestFactoryImplI23ListSTest_PushHead_TestE10CreateTestEv
FNDA:1,_ZN7testing8internal15TestFactoryImplI23ListSTest_PushTail_TestE10CreateTestEv
FNDA:1,_ZN7testing8internal15TestFactoryImplI23StrArrayTest_Pushi_TestE10CreateTestEv
FNDA:1,_ZN7testing8internal15TestFactoryImplI24ListDTest_PrintList_TestE10CreateTestEv
FNDA:1,_ZN7testing8internal15TestFactoryImplI24StrArrayTest_Delete_TestE10CreateTestEv
FNDA:1,_ZN7testing8internal15TestFactoryImplI24StrArrayTest_Resize_TestE10CreateTestEv
FNDA:1,_ZN7testing8internal15TestFactoryImplI25AVLTreeTest_FreeTree_TestE10CreateTestEv
FNDA:1,_ZN7testing8internal15TestFactoryImplI25ListDTest_CreateList_TestE10CreateTestEv
FNDA:1,_ZN7testing8internal15TestFactoryImplI25ListDTest_DeleteHead_TestE10CreateTestEv
FNDA:1,_ZN7testing8internal15TestFactoryImplI25ListDTest_DeleteTail_TestE10CreateTestEv
FNDA:1,_ZN7testing8internal15TestFactoryImplI25ListDTest_SaveToFile_TestE10CreateTestEv
FNDA:1,_ZN7testing8internal15TestFactoryImplI25ListSTest_CreateList_TestE10CreateTestEv
FNDA:1,_ZN7testing8internal15TestFactoryImplI25ListSTest_DeleteHead_TestE10CreateTestEv
FNDA:1,_ZN7testing8internal15TestFactoryImplI25ListSTest_DeleteTail_TestE10CreateTestEv
FNDA:1,_ZN7testing8internal15TestFactoryImplI25ListSTest_SaveToFile_TestE10CreateTestEv
FNDA:1,_ZN7testing8internal15TestFactoryImplI25QueueTest_SaveToFile_TestE10CreateTestEv
FNDA:1,_ZN7testing8internal15TestFactoryImplI25StackTest_SaveToFile_TestE10CreateTestEv
FNDA:1,_ZN7testing8internal15TestFactoryImplI25StrArrayTest_Replace_TestE10CreateTestEv
FNDA:1,_ZN7testing8internal15TestFactoryImplI26AVLTreeTest_ClearTree_TestE10CreateTestEv
FNDA:1,_ZN7testing8internal15TestFactoryImplI26AVLTreeTest_EmptyTree_TestE10CreateTestEv
FNDA:1,_ZN7testing8internal15TestFactoryImplI26AVLTreeTest_PrintTree_TestE10CreateTestEv
FNDA:1,_ZN7testing8internal15TestFactoryImplI26ListDTest_DeleteValue_TestE10CreateTestEv
FNDA:1,_ZN7testing8internal15TestFactoryImplI26QueueTest_CreateQueue_TestE10CreateTestEv
FNDA:1,_ZN7testing8internal15TestFactoryImplI26StackTest_CreateStack_TestE10CreateTestEv
FNDA:1,_ZN7testing8internal15TestFactoryImplI27ListDTest_LoadFromFile_TestE10CreateTestEv
FNDA:1,_ZN7testing8internal15TestFactoryImplI28AVLTreeTest_WriteToFile_TestE10CreateTestEv
FNDA:1,_ZN7testing8internal15TestFactoryImplI28ListSTest_DeltEmptyList_TestE10CreateTestEv
FNDA:1,_ZN7testing8internal15TestFactoryImplI28StrArrayTest_SaveToFile_TestE10CreateTestEv
FNDA:1,_ZN7testing8internal15TestFactoryImplI29AVLTreeTest_MinValueNode_TestE10CreateTestEv
FNDA:1,_ZN7testing8internal15TestFactoryImplI30HashTableTest_GetKeyFound_TestE10CreateTestEv
FNDA:1,_ZN7testing8internal15TestFactoryImplI30HashTableTest_PushSuccess_TestE10CreateTestEv
FNDA:1,_ZN7testing8internal15TestFactoryImplI30ListSTest_DelvHeadElement_TestE10CreateTestEv
FNDA:1,_ZN7testing8internal15TestFactoryImplI31ListDTest_SaveToBinaryFile_TestE10CreateTestEv
FNDA:1,_ZN7testing8internal15TestFactoryImplI32AVLTreeTest_InsertAndSearch_TestE10CreateTestEv
FNDA:1,_ZN7testing8internal15TestFactoryImplI32StrArrayTest_Initialization_TestE10CreateTestEv
FNDA:1,_ZN7testing8internal15TestFactoryImplI33AVLTreeTest_HeightAndBalance_TestE10CreateTestEv
FNDA:1,_ZN7testing8internal15TestFactoryImplI33AVLTreeTest_InsertDuplicates_TestE10CreateTestEv
FNDA:1,_ZN7testing8internal15TestFactoryImplI33HashTableTest_GetKeyNotFound_TestE10CreateTestEv
FNDA:1,_ZN7testing8internal15TestFactoryImplI33ListDTest_LoadFromBinaryFile_TestE10CreateTestEv
FNDA:1,_ZN7testing8internal15TestFactoryImplI34AVLTreeTest_RemoveNonExistent_TestE10CreateTestEv
FNDA:1,_ZN7testing8internal15TestFactoryImplI34HashTableTest_CreateHashTable_TestE10CreateTestEv
FNDA:1,_ZN7testing8internal15TestFactoryImplI34HashTableTest_PushExistingKey_TestE10CreateTestEv
FNDA:1,_ZN7testing8internal15TestFactoryImplI34ListSTest_DelvElementNotFound_TestE10CreateTestEv
FNDA:1,_ZN7testing8internal15TestFactoryImplI34StrArrayTest_PushiOutOfBounds_TestE10CreateTestEv
FNDA:1,_ZN7testing8internal15TestFactoryImplI35HashTableTest_DeleteKeySuccess_TestE10CreateTestEv
FNDA:1,_ZN7testing8internal15TestFactoryImplI35HashTableTest_SaveToBinaryFile_TestE10CreateTestEv
FNDA:1,_ZN7testing8internal15TestFactoryImplI36HashTableTest_DeleteKeyNotFound_TestE10CreateTestEv
FNDA:1,_ZN7testing8internal15TestFactoryImplI36ListSTest_DelhSingleElementList_TestE10CreateTestEv
FNDA:1,_ZN7testing8internal15TestFactoryImplI37AVLTreeTest_SerializeDeserialize_TestE10CreateTestEv
FNDA:1,_ZN7testing8internal15TestFactoryImplI37HashTableTest_LoadFromBinaryFile_TestE10CreateTestEv
FNDA:1,_ZN7testing8internal15TestFactoryImplI38HashTableTest_SaveAndLoadFromFile_TestE10CreateTestEv
FNDA:1,_ZN7testing8internal15TestFactoryImplI38StrArrayTest_SerializeDeserialize_TestE10CreateTestEv
FNDA:1,_ZN7testing8internal15TestFactoryImplI42HashTableTest_LargeNumberOfOperations_TestE10CreateTestEv
FNDA:1,_ZN7testing8internal15TestFactoryImplI43ListSTest_SerializationDeserialization_TestE10CreateTestEv
FNDA:1,_ZN7testing8internal15TestFactoryImplI43QueueTest_SerializationDeserialization_TestE10CreateTestEv
FNDA:1,_ZN7testing8internal15TestFactoryImplI43StackTest_SerializationDeserialization_TestE10CreateTestEv
FNDA:1,_ZN7testing8internal15TestFactoryImplI44AVLTreeTest_InsertRequiresRightRotation_TestE10CreateTestEv
FNDA:1,_ZN7testing8internal15TestFactoryImplI46AVLTreeTest_SerializeDeserializeEmptyTree_TestE10CreateTestEv
FNDA:1,_ZN7testing8internal15TestFactoryImplI48AVLTreeTest_InsertRequiresLeftRightRotation_TestE10CreateTestEv
FNDA:1,_ZN7testing8internal15TestFactoryImplI48AVLTreeTest_InsertRequiresRightLeftRotation_TestE10CreateTestEv
FNDA:1,_ZN7testing8internal15TestFactoryImplI54AVLTreeTest_SerializeDeserializeSingleElementTree_TestE10CreateTestEv
FNDA:70,_ZN7testing8internal12CodeLocationC2ERKNSt7__cxx1112basic_stringIcSt11char_traitsIcESaIcEEEi
FNDA:280,_ZN7testing8internal19GetNotDefaultOrNullEPFvvES2_
FNDA:70,_ZN7testing8internal16SuiteApiResolverINS_4TestEE19GetSetUpCaseOrSuiteEPKci
FNDA:70,_ZN7testing8internal16SuiteApiResolverINS_4TestEE22GetTearDownCaseOrSuiteEPKci
FNF:77
FNH:76
DA:438,70
DA:445,70
DA:457,70
DA:478,70
DA:479,70
DA:491,280
DA:493,280
DA:506,70
DA:510,70
DA:512,70
DA:514,70
DA:517,0
DA:519,70
DA:527,70
DA:531,70
DA:533,70
DA:535,70
DA:538,0
DA:540,70
LF:19
LH:17
end_of_record
TN:
SF:/usr/include/gtest/internal/gtest-port.h
FN:1042,1042,_ZN7testing8internal8GTestLog9GetStreamEv
FNDA:0,_ZN7testing8internal8GTestLog9GetStreamEv
FNF:1
FNH:0
DA:1042,0
LF:1
LH:0
end_of_record
TN:
SF:/usr/include/x86_64-linux-gnu/c++/13/bits/c++config.h
FN:540,551,_ZSt23__is_constant_evaluatedv
FNDA:14639,_ZSt23__is_constant_evaluatedv
FNF:1
FNH:1
DA:540,14639
DA:547,14639
LF:2
LH:2
end_of_record
